---
triple:          'arm64-apple-darwin'
binary-path:     '/Users/administratorregula/builds/0/CrossPlatform_LivenessSources/build_ios/iphonesimulator/Liveness/Release-iphonesimulator/Liveness.framework/Liveness'
relocations:
  - { offset: 0x443D, size: 0x8, addend: 0x0, symName: __ZNSt3__124__put_character_sequenceB8ne180100IcNS_11char_traitsIcEEEERNS_13basic_ostreamIT_T0_EES7_PKS4_m, symObjAddr: 0xCFC, symBinAddr: 0x25EC, symSize: 0x164 }
  - { offset: 0x5C0F, size: 0x8, addend: 0x0, symName: __ZNSt3__120__throw_length_errorB8ne180100EPKc, symObjAddr: 0xC88, symBinAddr: 0x2578, symSize: 0x50 }
  - { offset: 0x6109, size: 0x8, addend: 0x0, symName: __ZNSt3__116__pad_and_outputB8ne180100IcNS_11char_traitsIcEEEENS_19ostreambuf_iteratorIT_T0_EES6_PKS4_S8_S8_RNS_8ios_baseES4_, symObjAddr: 0xE60, symBinAddr: 0x2750, symSize: 0x1A4 }
  - { offset: 0x7E0A, size: 0x8, addend: 0x0, symName: __ZNSt3__112basic_stringIcNS_11char_traitsIcEENS_9allocatorIcEEE25__init_copy_ctor_externalEPKcm, symObjAddr: 0xBE8, symBinAddr: 0x24D8, symSize: 0x8C }
  - { offset: 0x816F, size: 0x8, addend: 0x0, symName: __ZNKSt3__112basic_stringIcNS_11char_traitsIcEENS_9allocatorIcEEE20__throw_length_errorB8ne180100Ev, symObjAddr: 0xC74, symBinAddr: 0x2564, symSize: 0x14 }
  - { offset: 0x8199, size: 0x8, addend: 0x0, symName: __ZN6common5Timer5resetEv, symObjAddr: 0x60, symBinAddr: 0x1B60, symSize: 0x30 }
  - { offset: 0x821A, size: 0x8, addend: 0x0, symName: __ZN6common5TimerC1ERKNSt3__112basic_stringIcNS1_11char_traitsIcEENS1_9allocatorIcEEEE, symObjAddr: 0x90, symBinAddr: 0x1B90, symSize: 0x60 }
  - { offset: 0x8388, size: 0x8, addend: 0x0, symName: __ZN6common5Timer5clearEv, symObjAddr: 0xF0, symBinAddr: 0x1BF0, symSize: 0xC }
  - { offset: 0x83A8, size: 0x8, addend: 0x0, symName: __ZN6common5Timer5startEv, symObjAddr: 0xFC, symBinAddr: 0x1BFC, symSize: 0x2C }
  - { offset: 0x84B5, size: 0x8, addend: 0x0, symName: __ZNK6common5Timer14getTimeDeltaMsEv, symObjAddr: 0x128, symBinAddr: 0x1C28, symSize: 0x64 }
  - { offset: 0x8859, size: 0x8, addend: 0x0, symName: __ZNKSt3__115basic_stringbufIcNS_11char_traitsIcEENS_9allocatorIcEEE3strEv, symObjAddr: 0x1004, symBinAddr: 0x28F4, symSize: 0x258 }
  - { offset: 0x8EAC, size: 0x8, addend: 0x0, symName: __ZNSt3__118basic_stringstreamIcNS_11char_traitsIcEENS_9allocatorIcEEED1Ev, symObjAddr: 0x39C, symBinAddr: 0x1C8C, symSize: 0x94 }
  - { offset: 0x903F, size: 0x8, addend: 0x0, symName: __ZN6common5Timer4stopEv, symObjAddr: 0x430, symBinAddr: 0x1D20, symSize: 0x68 }
  - { offset: 0x919A, size: 0x8, addend: 0x0, symName: __ZThn16_NSt3__118basic_stringstreamIcNS_11char_traitsIcEENS_9allocatorIcEEED1Ev, symObjAddr: 0x4A8, symBinAddr: 0x1D98, symSize: 0x8C }
  - { offset: 0x9342, size: 0x8, addend: 0x0, symName: __ZTv0_n24_NSt3__118basic_stringstreamIcNS_11char_traitsIcEENS_9allocatorIcEEED1Ev, symObjAddr: 0x534, symBinAddr: 0x1E24, symSize: 0x94 }
  - { offset: 0x94E8, size: 0x8, addend: 0x0, symName: __ZNSt3__118basic_stringstreamIcNS_11char_traitsIcEENS_9allocatorIcEEED0Ev, symObjAddr: 0x5C8, symBinAddr: 0x1EB8, symSize: 0x94 }
  - { offset: 0x96B3, size: 0x8, addend: 0x0, symName: __ZThn16_NSt3__118basic_stringstreamIcNS_11char_traitsIcEENS_9allocatorIcEEED0Ev, symObjAddr: 0x65C, symBinAddr: 0x1F4C, symSize: 0x94 }
  - { offset: 0x9879, size: 0x8, addend: 0x0, symName: __ZTv0_n24_NSt3__118basic_stringstreamIcNS_11char_traitsIcEENS_9allocatorIcEEED0Ev, symObjAddr: 0x6F0, symBinAddr: 0x1FE0, symSize: 0x9C }
  - { offset: 0x9A3B, size: 0x8, addend: 0x0, symName: __ZNSt3__115basic_stringbufIcNS_11char_traitsIcEENS_9allocatorIcEEED1Ev, symObjAddr: 0x78C, symBinAddr: 0x207C, symSize: 0x50 }
  - { offset: 0x9B93, size: 0x8, addend: 0x0, symName: __ZNSt3__115basic_stringbufIcNS_11char_traitsIcEENS_9allocatorIcEEED0Ev, symObjAddr: 0x7DC, symBinAddr: 0x20CC, symSize: 0x58 }
  - { offset: 0x9E0A, size: 0x8, addend: 0x0, symName: __ZNSt3__115basic_stringbufIcNS_11char_traitsIcEENS_9allocatorIcEEE7seekoffExNS_8ios_base7seekdirEj, symObjAddr: 0x834, symBinAddr: 0x2124, symSize: 0x124 }
  - { offset: 0xA034, size: 0x8, addend: 0x0, symName: __ZNSt3__115basic_stringbufIcNS_11char_traitsIcEENS_9allocatorIcEEE7seekposENS_4fposI11__mbstate_tEEj, symObjAddr: 0x958, symBinAddr: 0x2248, symSize: 0x18 }
  - { offset: 0xA0D3, size: 0x8, addend: 0x0, symName: __ZNSt3__115basic_stringbufIcNS_11char_traitsIcEENS_9allocatorIcEEE9underflowEv, symObjAddr: 0x970, symBinAddr: 0x2260, symSize: 0x50 }
  - { offset: 0xA177, size: 0x8, addend: 0x0, symName: __ZNSt3__115basic_stringbufIcNS_11char_traitsIcEENS_9allocatorIcEEE9pbackfailEi, symObjAddr: 0x9C0, symBinAddr: 0x22B0, symSize: 0x6C }
  - { offset: 0xA345, size: 0x8, addend: 0x0, symName: __ZNSt3__115basic_stringbufIcNS_11char_traitsIcEENS_9allocatorIcEEE8overflowEi, symObjAddr: 0xA2C, symBinAddr: 0x231C, symSize: 0x1BC }
  - { offset: 0xA824, size: 0x8, addend: 0x0, symName: __ZNKSt3__112basic_stringIcNS_11char_traitsIcEENS_9allocatorIcEEE20__throw_length_errorB8ne180100Ev, symObjAddr: 0xC74, symBinAddr: 0x2564, symSize: 0x14 }
  - { offset: 0xA84E, size: 0x8, addend: 0x0, symName: __ZNSt3__120__throw_length_errorB8ne180100EPKc, symObjAddr: 0xC88, symBinAddr: 0x2578, symSize: 0x50 }
  - { offset: 0xA859, size: 0x8, addend: 0x0, symName: __ZNSt12length_errorC1B8ne180100EPKc, symObjAddr: 0xCD8, symBinAddr: 0x25C8, symSize: 0x24 }
  - { offset: 0x1647A, size: 0x8, addend: 0x0, symName: __ZNSt3__16vectorIhNS_9allocatorIhEEE18__insert_with_sizeB8ne180100INS_11__wrap_iterIPKcEES8_EENS5_IPhEENS5_IPKhEET_T0_l, symObjAddr: 0x1558, symBinAddr: 0x2E74, symSize: 0x420 }
  - { offset: 0x16F3F, size: 0x8, addend: 0x0, symName: __ZNSt3__16vectorIhNS_9allocatorIhEEE18__insert_with_sizeB8ne180100INS_11__wrap_iterIPKhEES8_EENS5_IPhEES8_T_T0_l, symObjAddr: 0x1978, symBinAddr: 0x3294, symSize: 0x3A0 }
  - { offset: 0x16FF1, size: 0x8, addend: 0x0, symName: __ZNSt3__16vectorIhNS_9allocatorIhEEE18__insert_with_sizeB8ne180100INS_11__wrap_iterIPKhEES8_EENS5_IPhEES8_T_T0_l, symObjAddr: 0x1978, symBinAddr: 0x3294, symSize: 0x3A0 }
  - { offset: 0x17BB5, size: 0x8, addend: 0x0, symName: __ZNSt3__16vectorIhNS_9allocatorIhEEE18__insert_with_sizeB8ne180100IPKhS6_EENS_11__wrap_iterIPhEENS7_IS6_EET_T0_l, symObjAddr: 0x1D18, symBinAddr: 0x3634, symSize: 0x2BC }
  - { offset: 0x17C0B, size: 0x8, addend: 0x0, symName: __ZN6common6base647EncoderC1ERKNSt3__16vectorIhNS2_9allocatorIhEEEENS_13Base64Rfc46486OptionE, symObjAddr: 0x38C, symBinAddr: 0x2B4C, symSize: 0xA4 }
  - { offset: 0x17F9C, size: 0x8, addend: 0x0, symName: __ZNSt3__16vectorIhNS_9allocatorIhEEE18__insert_with_sizeB8ne180100IPKhS6_EENS_11__wrap_iterIPhEENS7_IS6_EET_T0_l, symObjAddr: 0x1D18, symBinAddr: 0x3634, symSize: 0x2BC }
  - { offset: 0x18B1A, size: 0x8, addend: 0x0, symName: __ZNSt3__16vectorIcNS_9allocatorIcEEE8__appendEmRKc, symObjAddr: 0x1FD4, symBinAddr: 0x38F0, symSize: 0x2BC }
  - { offset: 0x18E50, size: 0x8, addend: 0x0, symName: __ZN6common6base647Encoder8toStringEv, symObjAddr: 0x6CC, symBinAddr: 0x2BF0, symSize: 0xF8 }
  - { offset: 0x192FD, size: 0x8, addend: 0x0, symName: __ZN6common6base647Encoder21internalEncodeProcessEv, symObjAddr: 0x7C4, symBinAddr: 0x2CE8, symSize: 0x178 }
  - { offset: 0x1930F, size: 0x8, addend: 0x0, symName: __ZN6common6base647Encoder21internalEncodeProcessEv, symObjAddr: 0x7C4, symBinAddr: 0x2CE8, symSize: 0x178 }
  - { offset: 0x195A4, size: 0x8, addend: 0x0, symName: __ZNSt3__16vectorIcNS_9allocatorIcEEE8__appendEmRKc, symObjAddr: 0x1FD4, symBinAddr: 0x38F0, symSize: 0x2BC }
  - { offset: 0x19BB5, size: 0x8, addend: 0x0, symName: __ZNKSt3__16vectorIhNS_9allocatorIhEEE20__throw_length_errorB8ne180100Ev, symObjAddr: 0xEDC, symBinAddr: 0x2E60, symSize: 0x14 }
  - { offset: 0x1D50D, size: 0x8, addend: 0x0, symName: __ZN6common13Base64Rfc4648C2ENS0_6OptionE, symObjAddr: 0xB0, symBinAddr: 0x3BAC, symSize: 0x5C }
  - { offset: 0x20403, size: 0x8, addend: 0x0, symName: __ZN6common3zip5entryrsERNS0_12input_readerERNS1_12extraField_tE, symObjAddr: 0x990, symBinAddr: 0x3C2C, symSize: 0x14C }
  - { offset: 0x2C8B3, size: 0x8, addend: 0x0, symName: __ZSt28__throw_bad_array_new_lengthB8ne180100v, symObjAddr: 0x3718, symBinAddr: 0x5CA8, symSize: 0x28 }
  - { offset: 0x2DD2D, size: 0x8, addend: 0x0, symName: __ZNSt11range_errorC1B8ne180100EPKc, symObjAddr: 0x208, symBinAddr: 0x3C08, symSize: 0x24 }
  - { offset: 0x2E5A8, size: 0x8, addend: 0x0, symName: __ZN6common3zip5entry10local_file6header7extractERNS0_12input_readerE, symObjAddr: 0xADC, symBinAddr: 0x3D78, symSize: 0x5F0 }
  - { offset: 0x30C34, size: 0x8, addend: 0x0, symName: __ZN6common3zip5entry17central_directory11file_header7extractERNS0_12input_readerE, symObjAddr: 0x1314, symBinAddr: 0x4368, symSize: 0x818 }
  - { offset: 0x34574, size: 0x8, addend: 0x0, symName: __ZN6common3zip5entry17central_directory7extractERNS0_12input_readerE, symObjAddr: 0x1B2C, symBinAddr: 0x4B80, symSize: 0x3E0 }
  - { offset: 0x35DDD, size: 0x8, addend: 0x0, symName: __ZN6common3zip11mapped_file12parseProcessEv, symObjAddr: 0x1F5C, symBinAddr: 0x4F60, symSize: 0x634 }
  - { offset: 0x37D5D, size: 0x8, addend: 0x0, symName: __ZNSt3__16vectorIN6common3zip5entry17central_directory11file_headerENS_9allocatorIS5_EEE24__emplace_back_slow_pathIJS5_EEEPS5_DpOT_, symObjAddr: 0x3768, symBinAddr: 0x5CD0, symSize: 0x1C8 }
  - { offset: 0x384A7, size: 0x8, addend: 0x0, symName: __ZNSt3__16vectorIN6common3zip11mapped_file10entry_fileENS_9allocatorIS4_EEE5clearB8ne180100Ev, symObjAddr: 0x2B58, symBinAddr: 0x55D0, symSize: 0x50 }
  - { offset: 0x386F1, size: 0x8, addend: 0x0, symName: __ZNSt3__16vectorIN6common3zip11mapped_file10entry_fileENS_9allocatorIS4_EEE7reserveEm, symObjAddr: 0x2BA8, symBinAddr: 0x5620, symSize: 0x120 }
  - { offset: 0x38CC2, size: 0x8, addend: 0x0, symName: __ZNSt3__16vectorIN6common3zip11mapped_file10entry_fileENS_9allocatorIS4_EEE24__emplace_back_slow_pathIJRKNS2_5entry17central_directory11file_headerEEEEPS4_DpOT_, symObjAddr: 0x3958, symBinAddr: 0x5E98, symSize: 0x1C0 }
  - { offset: 0x39428, size: 0x8, addend: 0x0, symName: __ZNSt3__16vectorIhNS_9allocatorIhEEE18__assign_with_sizeB8ne180100IPhS5_EEvT_T0_l, symObjAddr: 0x3B18, symBinAddr: 0x6058, symSize: 0x148 }
  - { offset: 0x3943E, size: 0x8, addend: 0x0, symName: __ZNSt3__16vectorIN6common3zip5entry17central_directory11file_headerENS_9allocatorIS5_EEED1B8ne180100Ev, symObjAddr: 0x2CD4, symBinAddr: 0x5740, symSize: 0x70 }
  - { offset: 0x39A2F, size: 0x8, addend: 0x0, symName: __ZNK6common3zip11mapped_file10entry_file10decompressEv, symObjAddr: 0x2EBC, symBinAddr: 0x57B0, symSize: 0x164 }
  - { offset: 0x39DE7, size: 0x8, addend: 0x0, symName: __ZNK6common3zip11mapped_file10entry_file16decompressedDataEv, symObjAddr: 0x28A8, symBinAddr: 0x5594, symSize: 0x2C }
  - { offset: 0x39F2E, size: 0x8, addend: 0x0, symName: __ZNK6common3zip11mapped_file5beginEv, symObjAddr: 0x29B4, symBinAddr: 0x55C0, symSize: 0x8 }
  - { offset: 0x39F5A, size: 0x8, addend: 0x0, symName: __ZNK6common3zip11mapped_file5beginEv, symObjAddr: 0x29B4, symBinAddr: 0x55C0, symSize: 0x8 }
  - { offset: 0x39F8F, size: 0x8, addend: 0x0, symName: __ZNK6common3zip11mapped_file3endEv, symObjAddr: 0x29C4, symBinAddr: 0x55C8, symSize: 0x8 }
  - { offset: 0x39FBB, size: 0x8, addend: 0x0, symName: __ZNK6common3zip11mapped_file3endEv, symObjAddr: 0x29C4, symBinAddr: 0x55C8, symSize: 0x8 }
  - { offset: 0x3A2BF, size: 0x8, addend: 0x0, symName: __ZNSt3__16vectorIN6common3zip11mapped_file10entry_fileENS_9allocatorIS4_EEE24__emplace_back_slow_pathIJRKNS2_5entry17central_directory11file_headerEEEEPS4_DpOT_, symObjAddr: 0x3958, symBinAddr: 0x5E98, symSize: 0x1C0 }
  - { offset: 0x3A4E9, size: 0x8, addend: 0x0, symName: __ZNSt3__16vectorIhNS_9allocatorIhEEE6assignEmRKh, symObjAddr: 0x3034, symBinAddr: 0x5914, symSize: 0x248 }
  - { offset: 0x3AC84, size: 0x8, addend: 0x0, symName: __ZN6common3zip11mapped_fileD2Ev, symObjAddr: 0x3410, symBinAddr: 0x5B5C, symSize: 0x70 }
  - { offset: 0x3AF94, size: 0x8, addend: 0x0, symName: __ZN6common3zip4fileC2EONSt3__16vectorIhNS2_9allocatorIhEEEE, symObjAddr: 0x3484, symBinAddr: 0x5BCC, symSize: 0xD8 }
  - { offset: 0x3B4E6, size: 0x8, addend: 0x0, symName: __ZN6common3zip4fileC1EONSt3__16vectorIhNS2_9allocatorIhEEEE, symObjAddr: 0x355C, symBinAddr: 0x5CA4, symSize: 0x4 }
  - { offset: 0x3B524, size: 0x8, addend: 0x0, symName: __ZN6common3zip4fileC1EONSt3__16vectorIhNS2_9allocatorIhEEEE, symObjAddr: 0x355C, symBinAddr: 0x5CA4, symSize: 0x4 }
  - { offset: 0x3B53E, size: 0x8, addend: 0x0, symName: __ZNSt3__16vectorIhNS_9allocatorIhEEE18__assign_with_sizeB8ne180100IPhS5_EEvT_T0_l, symObjAddr: 0x3B18, symBinAddr: 0x6058, symSize: 0x148 }
  - { offset: 0x3E0AA, size: 0x8, addend: 0x0, symName: __ZN7facesdk14LSessionParams14posConstNormalE, symObjAddr: 0x1670C, symBinAddr: 0xEACDB8, symSize: 0x0 }
  - { offset: 0x3E4A2, size: 0x8, addend: 0x0, symName: __ZN7facesdk14LSessionParams12posConstNearE, symObjAddr: 0x1672C, symBinAddr: 0xEACDD8, symSize: 0x0 }
  - { offset: 0x69E95, size: 0x8, addend: 0x0, symName: __ZNSt3__135__uninitialized_allocator_copy_implB8ne180100INS_9allocatorIN7facesdk12LFrameResultEEEPS3_S5_S5_EET2_RT_T0_T1_S6_, symObjAddr: 0xC0DC, symBinAddr: 0x11EDC, symSize: 0xE8 }
  - { offset: 0x6A365, size: 0x8, addend: 0x0, symName: __ZNSt3__135__uninitialized_allocator_copy_implB8ne180100INS_9allocatorIN7facesdk5LFaceEEEPS3_S5_S5_EET2_RT_T0_T1_S6_, symObjAddr: 0xC370, symBinAddr: 0x1215C, symSize: 0x1C8 }
  - { offset: 0x6AA5A, size: 0x8, addend: 0x0, symName: __ZNSt3__120__throw_out_of_rangeB8ne180100EPKc, symObjAddr: 0xC814, symBinAddr: 0x125EC, symSize: 0x50 }
  - { offset: 0x6AD57, size: 0x8, addend: 0x0, symName: __ZNSt3__127__tree_balance_after_insertB8ne180100IPNS_16__tree_node_baseIPvEEEEvT_S5_, symObjAddr: 0xD1DC, symBinAddr: 0x12FB4, symSize: 0x1B4 }
  - { offset: 0x73EAF, size: 0x8, addend: 0x0, symName: __ZN8nlohmann16json_abi_v3_11_26detail6concatINSt3__112basic_stringIcNS3_11char_traitsIcEENS3_9allocatorIcEEEEJRA29_KcPSA_EEET_DpOT0_, symObjAddr: 0xA0A8, symBinAddr: 0xFF84, symSize: 0x84 }
  - { offset: 0x74139, size: 0x8, addend: 0x0, symName: __ZN8nlohmann16json_abi_v3_11_26detail9from_jsonINS0_10basic_jsonINSt3__13mapENS4_6vectorENS4_12basic_stringIcNS4_11char_traitsIcEENS4_9allocatorIcEEEEbxydSA_NS0_14adl_serializerENS6_IhNSA_IhEEEEEEmLi0EEEvRKT_RT0_, symObjAddr: 0x9DA0, symBinAddr: 0xFC7C, symSize: 0x13C }
  - { offset: 0x74323, size: 0x8, addend: 0x0, symName: __ZN8nlohmann16json_abi_v3_11_26detail6concatINSt3__112basic_stringIcNS3_11char_traitsIcEENS3_9allocatorIcEEEEJRA22_KcPSA_EEET_DpOT0_, symObjAddr: 0xF0A8, symBinAddr: 0x14B50, symSize: 0x84 }
  - { offset: 0x745CF, size: 0x8, addend: 0x0, symName: __ZN8nlohmann16json_abi_v3_11_26detail6concatINSt3__112basic_stringIcNS3_11char_traitsIcEENS3_9allocatorIcEEEEJRA6_KcS9_RA12_SA_EEET_DpOT0_, symObjAddr: 0xF12C, symBinAddr: 0x14BD4, symSize: 0xC8 }
  - { offset: 0x74A70, size: 0x8, addend: 0x0, symName: __ZN8nlohmann16json_abi_v3_11_26detail6concatINSt3__112basic_stringIcNS3_11char_traitsIcEENS3_9allocatorIcEEEEJRA32_KcPSA_EEET_DpOT0_, symObjAddr: 0xF1F4, symBinAddr: 0x14C9C, symSize: 0x84 }
  - { offset: 0x74D1C, size: 0x8, addend: 0x0, symName: __ZN8nlohmann16json_abi_v3_11_26detail9from_jsonINS0_10basic_jsonINSt3__13mapENS4_6vectorENS4_12basic_stringIcNS4_11char_traitsIcEENS4_9allocatorIcEEEEbxydSA_NS0_14adl_serializerENS6_IhNSA_IhEEEEEENS4_17basic_string_viewIcS9_EELi0EEEvRKT_RT0_, symObjAddr: 0x10ABC, symBinAddr: 0x16564, symSize: 0x108 }
  - { offset: 0x74FCF, size: 0x8, addend: 0x0, symName: __ZN8nlohmann16json_abi_v3_11_26detail9from_jsonINS0_10basic_jsonINSt3__13mapENS4_6vectorENS4_12basic_stringIcNS4_11char_traitsIcEENS4_9allocatorIcEEEEbxydSA_NS0_14adl_serializerENS6_IhNSA_IhEEEEEEiLi0EEEvRKT_RT0_, symObjAddr: 0x14698, symBinAddr: 0x1A118, symSize: 0x13C }
  - { offset: 0x751B9, size: 0x8, addend: 0x0, symName: __ZN8nlohmann16json_abi_v3_11_26detail9from_jsonINS0_10basic_jsonINSt3__13mapENS4_6vectorENS4_12basic_stringIcNS4_11char_traitsIcEENS4_9allocatorIcEEEEbxydSA_NS0_14adl_serializerENS6_IhNSA_IhEEEEEEfLi0EEEvRKT_RT0_, symObjAddr: 0x147D4, symBinAddr: 0x1A254, symSize: 0x170 }
  - { offset: 0x753A3, size: 0x8, addend: 0x0, symName: __ZN8nlohmann16json_abi_v3_11_26detail9from_jsonINS0_10basic_jsonINSt3__13mapENS4_6vectorENS4_12basic_stringIcNS4_11char_traitsIcEENS4_9allocatorIcEEEEbxydSA_NS0_14adl_serializerENS6_IhNSA_IhEEEEEENS6_IjNSA_IjEEEELi0EEEDTcmcmcl20from_json_array_implfp_fp0_tlNS1_12priority_tagILj3EEEEEcldtfp_3getINT0_10value_typeEEEcvv_EERKT_RSL_, symObjAddr: 0xA44C, symBinAddr: 0x10328, symSize: 0xD8 }
  - { offset: 0x755E2, size: 0x8, addend: 0x0, symName: __ZN8nlohmann16json_abi_v3_11_26detail20get_arithmetic_valueINS0_10basic_jsonINSt3__13mapENS4_6vectorENS4_12basic_stringIcNS4_11char_traitsIcEENS4_9allocatorIcEEEEbxydSA_NS0_14adl_serializerENS6_IhNSA_IhEEEEEEiLi0EEEvRKT_RT0_, symObjAddr: 0x109A8, symBinAddr: 0x16450, symSize: 0x114 }
  - { offset: 0x757C7, size: 0x8, addend: 0x0, symName: __ZN8nlohmann16json_abi_v3_11_26detail6concatINSt3__112basic_stringIcNS3_11char_traitsIcEENS3_9allocatorIcEEEEJRA25_KcPSA_EEET_DpOT0_, symObjAddr: 0x10924, symBinAddr: 0x163CC, symSize: 0x84 }
  - { offset: 0x75A73, size: 0x8, addend: 0x0, symName: __ZN8nlohmann16json_abi_v3_11_26detail9from_jsonINS0_10basic_jsonINSt3__13mapENS4_6vectorENS4_12basic_stringIcNS4_11char_traitsIcEENS4_9allocatorIcEEEEbxydSA_NS0_14adl_serializerENS6_IhNSA_IhEEEEEEEEvRKT_RNSH_8string_tE, symObjAddr: 0x10BC4, symBinAddr: 0x1666C, symSize: 0xE0 }
  - { offset: 0x75E89, size: 0x8, addend: 0x0, symName: __ZN8nlohmann16json_abi_v3_11_26detail6concatINSt3__112basic_stringIcNS3_11char_traitsIcEENS3_9allocatorIcEEEEJRA17_KcRKS9_cS9_RA3_SA_EEET_DpOT0_, symObjAddr: 0xA284, symBinAddr: 0x10160, symSize: 0x128 }
  - { offset: 0x7641F, size: 0x8, addend: 0x0, symName: __ZN8nlohmann16json_abi_v3_11_26detail6concatINSt3__112basic_stringIcNS3_11char_traitsIcEENS3_9allocatorIcEEEEJS9_S9_RKS9_EEET_DpOT0_, symObjAddr: 0xA184, symBinAddr: 0x10060, symSize: 0x100 }
  - { offset: 0x76DF4, size: 0x8, addend: 0x0, symName: __ZN8nlohmann16json_abi_v3_11_26detail20from_json_array_implINS0_10basic_jsonINSt3__13mapENS4_6vectorENS4_12basic_stringIcNS4_11char_traitsIcEENS4_9allocatorIcEEEEbxydSA_NS0_14adl_serializerENS6_IhNSA_IhEEEEEENS6_IjNSA_IjEEEELi0EEEDTcmcmcldtfp0_7reserveclsr3stdE7declvalINT0_9size_typeEEEEcldtfp_3getINSJ_10value_typeEEEcvv_EERKT_RSJ_NS1_12priority_tagILj1EEE, symObjAddr: 0xA5A8, symBinAddr: 0x10484, symSize: 0x258 }
  - { offset: 0x77883, size: 0x8, addend: 0x0, symName: __ZN8nlohmann16json_abi_v3_11_26detail6concatINSt3__112basic_stringIcNS3_11char_traitsIcEENS3_9allocatorIcEEEEJRA28_KcPSA_EEET_DpOT0_, symObjAddr: 0xA524, symBinAddr: 0x10400, symSize: 0x84 }
  - { offset: 0x77B81, size: 0x8, addend: 0x0, symName: __ZN8nlohmann16json_abi_v3_11_26detail9from_jsonINS0_10basic_jsonINSt3__13mapENS4_6vectorENS4_12basic_stringIcNS4_11char_traitsIcEENS4_9allocatorIcEEEEbxydSA_NS0_14adl_serializerENS6_IhNSA_IhEEEEEEjLi0EEEvRKT_RT0_, symObjAddr: 0xACA0, symBinAddr: 0x10B7C, symSize: 0x13C }
  - { offset: 0x77DDA, size: 0x8, addend: 0x0, symName: __ZN8nlohmann16json_abi_v3_11_26detail6concatINSt3__112basic_stringIcNS3_11char_traitsIcEENS3_9allocatorIcEEEEJRA51_KcPSA_EEET_DpOT0_, symObjAddr: 0xCF84, symBinAddr: 0x12D5C, symSize: 0x84 }
  - { offset: 0x78050, size: 0x8, addend: 0x0, symName: __ZN8nlohmann16json_abi_v3_11_26detail6concatINSt3__112basic_stringIcNS3_11char_traitsIcEENS3_9allocatorIcEEEEJRA61_KcPSA_EEET_DpOT0_, symObjAddr: 0xD930, symBinAddr: 0x136A8, symSize: 0x84 }
  - { offset: 0x7834E, size: 0x8, addend: 0x0, symName: __ZN8nlohmann16json_abi_v3_11_26detail6concatINSt3__112basic_stringIcNS3_11char_traitsIcEENS3_9allocatorIcEEEEJRA52_KcS9_RA2_SA_EEET_DpOT0_, symObjAddr: 0xE2E0, symBinAddr: 0x14058, symSize: 0xC8 }
  - { offset: 0x78894, size: 0x8, addend: 0x0, symName: __ZN8nlohmann16json_abi_v3_11_26detail6concatINSt3__112basic_stringIcNS3_11char_traitsIcEENS3_9allocatorIcEEEEJRA16_KcS9_RA56_SA_EEET_DpOT0_, symObjAddr: 0xEAEC, symBinAddr: 0x14864, symSize: 0xC8 }
  - { offset: 0x78FF0, size: 0x8, addend: 0x0, symName: __ZN8nlohmann16json_abi_v3_11_26detail6concatINSt3__112basic_stringIcNS3_11char_traitsIcEENS3_9allocatorIcEEEEJRA52_KcPSA_EEET_DpOT0_, symObjAddr: 0x103F8, symBinAddr: 0x15EA0, symSize: 0x84 }
  - { offset: 0x793DB, size: 0x8, addend: 0x0, symName: __ZN8nlohmann16json_abi_v3_11_26detail6concatINSt3__112basic_stringIcNS3_11char_traitsIcEENS3_9allocatorIcEEEEJRA26_KcS9_cEEET_DpOT0_, symObjAddr: 0x14038, symBinAddr: 0x19ACC, symSize: 0xB4 }
  - { offset: 0x7978D, size: 0x8, addend: 0x0, symName: __ZN8nlohmann16json_abi_v3_11_26detail6concatINSt3__112basic_stringIcNS3_11char_traitsIcEENS3_9allocatorIcEEEEJS9_RA12_KcS9_RA3_SA_S9_RKS9_EEET_DpOT0_, symObjAddr: 0x14200, symBinAddr: 0x19C80, symSize: 0x190 }
  - { offset: 0x7A14A, size: 0x8, addend: 0x0, symName: __ZN8nlohmann16json_abi_v3_11_26detail6concatINSt3__112basic_stringIcNS3_11char_traitsIcEENS3_9allocatorIcEEEEJPKcRA15_SA_S9_cEEET_DpOT0_, symObjAddr: 0x145B8, symBinAddr: 0x1A038, symSize: 0xE0 }
  - { offset: 0x7AA14, size: 0x8, addend: 0x0, symName: __ZN8nlohmann16json_abi_v3_11_26detail6concatINSt3__112basic_stringIcNS3_11char_traitsIcEENS3_9allocatorIcEEEEJRA10_KcS9_SC_S9_EEET_DpOT0_, symObjAddr: 0x14478, symBinAddr: 0x19EF8, symSize: 0x10C }
  - { offset: 0x7E7B2, size: 0x8, addend: 0x0, symName: __ZN7facesdk15LivenessSessionC2ERKNS_14LSessionParamsERKN8nlohmann16json_abi_v3_11_210basic_jsonINSt3__13mapENS7_6vectorENS7_12basic_stringIcNS7_11char_traitsIcEENS7_9allocatorIcEEEEbxydSD_NS5_14adl_serializerENS9_IhNSD_IhEEEEEE, symObjAddr: 0x0, symBinAddr: 0x61A0, symSize: 0x2F8 }
  - { offset: 0x7FA4C, size: 0x8, addend: 0x0, symName: __ZN7facesdk14LSessionParamsC2ERKS0_, symObjAddr: 0x9958, symBinAddr: 0xF8F4, symSize: 0x2C4 }
  - { offset: 0x80571, size: 0x8, addend: 0x0, symName: __ZN7facesdk15LivenessSession11initPackageERKN8nlohmann16json_abi_v3_11_210basic_jsonINSt3__13mapENS4_6vectorENS4_12basic_stringIcNS4_11char_traitsIcEENS4_9allocatorIcEEEEbxydSA_NS2_14adl_serializerENS6_IhNSA_IhEEEEEE, symObjAddr: 0x3A8, symBinAddr: 0x6548, symSize: 0x17C }
  - { offset: 0x80CDE, size: 0x8, addend: 0x0, symName: __ZNSt3__16vectorIN7facesdk12LStageResultENS_9allocatorIS2_EEE24__emplace_back_slow_pathIJEEEPS2_DpOT_, symObjAddr: 0xBBE4, symBinAddr: 0x11A0C, symSize: 0x1FC }
  - { offset: 0x81541, size: 0x8, addend: 0x0, symName: __ZN8nlohmann16json_abi_v3_11_210basic_jsonINSt3__13mapENS2_6vectorENS2_12basic_stringIcNS2_11char_traitsIcEENS2_9allocatorIcEEEEbxydS8_NS0_14adl_serializerENS4_IhNS8_IhEEEEED1Ev, symObjAddr: 0x524, symBinAddr: 0x66C4, symSize: 0x2C }
  - { offset: 0x81588, size: 0x8, addend: 0x0, symName: __ZNSt3__16vectorIN7facesdk12LStageResultENS_9allocatorIS2_EEED1B8ne180100Ev, symObjAddr: 0x550, symBinAddr: 0x66F0, symSize: 0x90 }
  - { offset: 0x81919, size: 0x8, addend: 0x0, symName: __ZNSt3__15dequeIN7facesdk11eFL_MessageENS_9allocatorIS2_EEED2B8ne180100Ev, symObjAddr: 0x9CDC, symBinAddr: 0xFBB8, symSize: 0xC4 }
  - { offset: 0x81D36, size: 0x8, addend: 0x0, symName: __ZN7facesdk14LSessionParamsD1Ev, symObjAddr: 0x5E0, symBinAddr: 0x6780, symSize: 0xAC }
  - { offset: 0x8251D, size: 0x8, addend: 0x0, symName: __ZNSt3__112basic_stringIcNS_11char_traitsIcEENS_9allocatorIcEEEC1B8ne180100ILi0EEEPKc, symObjAddr: 0x2F8, symBinAddr: 0x6498, symSize: 0xB0 }
  - { offset: 0x828CA, size: 0x8, addend: 0x0, symName: __ZN7facesdk15LivenessSession11initPackageERKN8nlohmann16json_abi_v3_11_210basic_jsonINSt3__13mapENS4_6vectorENS4_12basic_stringIcNS4_11char_traitsIcEENS4_9allocatorIcEEEEbxydSA_NS2_14adl_serializerENS6_IhNSA_IhEEEEEE, symObjAddr: 0x3A8, symBinAddr: 0x6548, symSize: 0x17C }
  - { offset: 0x82997, size: 0x8, addend: 0x0, symName: __ZN8nlohmann16json_abi_v3_11_210basic_jsonINSt3__13mapENS2_6vectorENS2_12basic_stringIcNS2_11char_traitsIcEENS2_9allocatorIcEEEEbxydS8_NS0_14adl_serializerENS4_IhNS8_IhEEEEEixIKcEERSE_PT_, symObjAddr: 0x32CC, symBinAddr: 0x9268, symSize: 0xF4 }
  - { offset: 0x82FE9, size: 0x8, addend: 0x0, symName: __ZN8nlohmann16json_abi_v3_11_210basic_jsonINSt3__13mapENS2_6vectorENS2_12basic_stringIcNS2_11char_traitsIcEENS2_9allocatorIcEEEEbxydS8_NS0_14adl_serializerENS4_IhNS8_IhEEEEE10json_value7destroyENS0_6detail7value_tE, symObjAddr: 0xB1F0, symBinAddr: 0x1102C, symSize: 0x5EC }
  - { offset: 0x84B72, size: 0x8, addend: 0x0, symName: __ZNK8nlohmann16json_abi_v3_11_210basic_jsonINSt3__13mapENS2_6vectorENS2_12basic_stringIcNS2_11char_traitsIcEENS2_9allocatorIcEEEEbxydS8_NS0_14adl_serializerENS4_IhNS8_IhEEEEE2atIRA7_KcLi0EEERKSE_OT_, symObjAddr: 0x44DC, symBinAddr: 0xA478, symSize: 0x1EC }
  - { offset: 0x851C7, size: 0x8, addend: 0x0, symName: __ZN8nlohmann16json_abi_v3_11_210basic_jsonINSt3__13mapENS2_6vectorENS2_12basic_stringIcNS2_11char_traitsIcEENS2_9allocatorIcEEEEbxydS8_NS0_14adl_serializerENS4_IhNS8_IhEEEEEC2ERKSE_, symObjAddr: 0xF3CC, symBinAddr: 0x14E74, symSize: 0x230 }
  - { offset: 0x8619B, size: 0x8, addend: 0x0, symName: __ZNSt3__16vectorIN7facesdk12LFrameResultENS_9allocatorIS2_EEE16__destroy_vectorclB8ne180100Ev, symObjAddr: 0xBB04, symBinAddr: 0x1192C, symSize: 0xE0 }
  - { offset: 0x86722, size: 0x8, addend: 0x0, symName: __ZN7facesdk15LivenessSessionC1ERKNS_14LSessionParamsERKN8nlohmann16json_abi_v3_11_210basic_jsonINSt3__13mapENS7_6vectorENS7_12basic_stringIcNS7_11char_traitsIcEENS7_9allocatorIcEEEEbxydSD_NS5_14adl_serializerENS9_IhNSD_IhEEEEEE, symObjAddr: 0x68C, symBinAddr: 0x682C, symSize: 0x4 }
  - { offset: 0x8676C, size: 0x8, addend: 0x0, symName: __ZN7facesdk15LivenessSessionC1ERKNS_14LSessionParamsERKN8nlohmann16json_abi_v3_11_210basic_jsonINSt3__13mapENS7_6vectorENS7_12basic_stringIcNS7_11char_traitsIcEENS7_9allocatorIcEEEEbxydSD_NS5_14adl_serializerENS9_IhNSD_IhEEEEEE, symObjAddr: 0x68C, symBinAddr: 0x682C, symSize: 0x4 }
  - { offset: 0x867E2, size: 0x8, addend: 0x0, symName: __ZNK7facesdk15LivenessSession9frameSizeEv, symObjAddr: 0x690, symBinAddr: 0x6830, symSize: 0xC }
  - { offset: 0x8680B, size: 0x8, addend: 0x0, symName: __ZNK7facesdk15LivenessSession9frameSizeEv, symObjAddr: 0x690, symBinAddr: 0x6830, symSize: 0xC }
  - { offset: 0x8682D, size: 0x8, addend: 0x0, symName: __ZNK7facesdk15LivenessSession9frameSizeEv, symObjAddr: 0x690, symBinAddr: 0x6830, symSize: 0xC }
  - { offset: 0x86850, size: 0x8, addend: 0x0, symName: __ZNK7facesdk15LivenessSession11numChannelsEv, symObjAddr: 0x69C, symBinAddr: 0x683C, symSize: 0x8 }
  - { offset: 0x86879, size: 0x8, addend: 0x0, symName: __ZNK7facesdk15LivenessSession13rotationAngleEv, symObjAddr: 0x6A4, symBinAddr: 0x6844, symSize: 0x8 }
  - { offset: 0x868CF, size: 0x8, addend: 0x0, symName: __ZN7facesdk15LivenessSession6statusEv, symObjAddr: 0x6AC, symBinAddr: 0x684C, symSize: 0x78 }
  - { offset: 0x8692F, size: 0x8, addend: 0x0, symName: __ZN7facesdk15LivenessSession7messageEv, symObjAddr: 0x794, symBinAddr: 0x68C4, symSize: 0x12C }
  - { offset: 0x86994, size: 0x8, addend: 0x0, symName: __ZNK7facesdk15LivenessSession15processingStageEv, symObjAddr: 0x8C0, symBinAddr: 0x69F0, symSize: 0x8 }
  - { offset: 0x869BD, size: 0x8, addend: 0x0, symName: __ZNK7facesdk15LivenessSession14processingTimeEv, symObjAddr: 0x8C8, symBinAddr: 0x69F8, symSize: 0x8 }
  - { offset: 0x869DF, size: 0x8, addend: 0x0, symName: __ZNK7facesdk15LivenessSession6paramsEv, symObjAddr: 0x8D0, symBinAddr: 0x6A00, symSize: 0x4 }
  - { offset: 0x86B92, size: 0x8, addend: 0x0, symName: __ZN7facesdk15LivenessSession13startNewFrameEv, symObjAddr: 0x8D4, symBinAddr: 0x6A04, symSize: 0x80 }
  - { offset: 0x86D2C, size: 0x8, addend: 0x0, symName: __ZNSt3__16vectorIN7facesdk12LFrameResultENS_9allocatorIS2_EEE24__emplace_back_slow_pathIJEEEPS2_DpOT_, symObjAddr: 0xC5AC, symBinAddr: 0x12384, symSize: 0x1A4 }
  - { offset: 0x87227, size: 0x8, addend: 0x0, symName: __ZNSt3__114__split_bufferIN7facesdk12LFrameResultERNS_9allocatorIS2_EEED2Ev, symObjAddr: 0xC750, symBinAddr: 0x12528, symSize: 0xB0 }
  - { offset: 0x87237, size: 0x8, addend: 0x0, symName: __ZN7facesdk15LivenessSession5abortEv, symObjAddr: 0x954, symBinAddr: 0x6A84, symSize: 0x58 }
  - { offset: 0x872F3, size: 0x8, addend: 0x0, symName: __ZN7facesdk15LivenessSession15faceDetectionOkERKNSt3__16vectorIN2cv5Rect_IiEENS1_9allocatorIS5_EEEERKNS2_INS2_INS3_6Point_IiEENS6_ISC_EEEENS6_ISE_EEEERKNS2_INS2_IfNS6_IfEEEENS6_ISK_EEEE, symObjAddr: 0x9AC, symBinAddr: 0x6ADC, symSize: 0xA0 }
  - { offset: 0x8743F, size: 0x8, addend: 0x0, symName: __ZN7facesdk15LivenessSession20facePositionNormalOkERNS_12LFrameResultE, symObjAddr: 0xA4C, symBinAddr: 0x6B7C, symSize: 0x178 }
  - { offset: 0x875EA, size: 0x8, addend: 0x0, symName: __ZN7facesdk15LivenessSession18facePositionNearOkERNS_12LFrameResultE, symObjAddr: 0xBC4, symBinAddr: 0x6CF4, symSize: 0xF4 }
  - { offset: 0x8776E, size: 0x8, addend: 0x0, symName: __ZN7facesdk15LivenessSession17faceOrientationOkERNS_12LFrameResultERbRKN2cv6Point_IiEE, symObjAddr: 0xCB8, symBinAddr: 0x6DE8, symSize: 0xC0 }
  - { offset: 0x87880, size: 0x8, addend: 0x0, symName: __ZN7facesdk15LivenessSession21faceOrientationNearOkERNS_12LFrameResultERKN2cv6Point_IiEE, symObjAddr: 0xE1C, symBinAddr: 0x6EA8, symSize: 0x18C }
  - { offset: 0x87A17, size: 0x8, addend: 0x0, symName: __ZN7facesdk15LivenessSession12brightnessOkEf, symObjAddr: 0x1060, symBinAddr: 0x7034, symSize: 0x50 }
  - { offset: 0x87A8B, size: 0x8, addend: 0x0, symName: __ZN7facesdk15LivenessSession12flawDetectedENS_11eFL_MessageERKNSt3__16vectorIfNS2_9allocatorIfEEEE, symObjAddr: 0x10B0, symBinAddr: 0x7084, symSize: 0x64 }
  - { offset: 0x87B50, size: 0x8, addend: 0x0, symName: __ZN7facesdk15LivenessSession23holdStillTimeoutReachedEv, symObjAddr: 0x1114, symBinAddr: 0x70E8, symSize: 0xCC }
  - { offset: 0x87B5B, size: 0x8, addend: 0x0, symName: __ZNKSt3__16vectorIfNS_9allocatorIfEEE20__throw_out_of_rangeB8ne180100Ev, symObjAddr: 0xC800, symBinAddr: 0x125D8, symSize: 0x14 }
  - { offset: 0x87B85, size: 0x8, addend: 0x0, symName: __ZNSt3__120__throw_out_of_rangeB8ne180100EPKc, symObjAddr: 0xC814, symBinAddr: 0x125EC, symSize: 0x50 }
  - { offset: 0x87B90, size: 0x8, addend: 0x0, symName: __ZN7facesdk15LivenessSession23holdStillTimeoutReachedEv, symObjAddr: 0x1114, symBinAddr: 0x70E8, symSize: 0xCC }
  - { offset: 0x87D06, size: 0x8, addend: 0x0, symName: __ZN7facesdk15LivenessSession23finalizeProcessingStageERKN2cv3MatERKNS_5LFaceE, symObjAddr: 0x11E0, symBinAddr: 0x71B4, symSize: 0x1E0 }
  - { offset: 0x88023, size: 0x8, addend: 0x0, symName: __ZNSt3__16vectorIN2cv6Point_IiEENS_9allocatorIS3_EEE18__assign_with_sizeB8ne180100IPS3_S8_EEvT_T0_l, symObjAddr: 0xC888, symBinAddr: 0x12660, symSize: 0x410 }
  - { offset: 0x8880F, size: 0x8, addend: 0x0, symName: __ZN8nlohmann16json_abi_v3_11_210basic_jsonINSt3__13mapENS2_6vectorENS2_12basic_stringIcNS2_11char_traitsIcEENS2_9allocatorIcEEEEbxydS8_NS0_14adl_serializerENS4_IhNS8_IhEEEEEixESA_, symObjAddr: 0xCC98, symBinAddr: 0x12A70, symSize: 0x120 }
  - { offset: 0x88833, size: 0x8, addend: 0x0, symName: __ZNK7facesdk15LivenessSession13currentTargetEv, symObjAddr: 0x13C0, symBinAddr: 0x7394, symSize: 0x18 }
  - { offset: 0x888ED, size: 0x8, addend: 0x0, symName: __ZNK7facesdk15LivenessSession12targetSectorEv, symObjAddr: 0x13D8, symBinAddr: 0x73AC, symSize: 0x1C }
  - { offset: 0x88937, size: 0x8, addend: 0x0, symName: __ZNK7facesdk15LivenessSession7resultsEv, symObjAddr: 0x13F4, symBinAddr: 0x73C8, symSize: 0x8 }
  - { offset: 0x8A977, size: 0x8, addend: 0x0, symName: __ZN7facesdk15LivenessSession15finalizePackageEv, symObjAddr: 0x1434, symBinAddr: 0x73D0, symSize: 0x1B18 }
  - { offset: 0x92208, size: 0x8, addend: 0x0, symName: __ZN7facesdk15LivenessSession16finalizeMetadataEv, symObjAddr: 0x2F4C, symBinAddr: 0x8EE8, symSize: 0x380 }
  - { offset: 0x93144, size: 0x8, addend: 0x0, symName: __ZN8nlohmann16json_abi_v3_11_210basic_jsonINSt3__13mapENS2_6vectorENS2_12basic_stringIcNS2_11char_traitsIcEENS2_9allocatorIcEEEEbxydS8_NS0_14adl_serializerENS4_IhNS8_IhEEEEE10json_value7destroyENS0_6detail7value_tE, symObjAddr: 0xB1F0, symBinAddr: 0x1102C, symSize: 0x5EC }
  - { offset: 0x93171, size: 0x8, addend: 0x0, symName: __ZN8nlohmann16json_abi_v3_11_210basic_jsonINSt3__13mapENS2_6vectorENS2_12basic_stringIcNS2_11char_traitsIcEENS2_9allocatorIcEEEEbxydS8_NS0_14adl_serializerENS4_IhNS8_IhEEEEE9push_backERKSE_, symObjAddr: 0x3520, symBinAddr: 0x94BC, symSize: 0x164 }
  - { offset: 0x935FA, size: 0x8, addend: 0x0, symName: __ZN8nlohmann16json_abi_v3_11_210basic_jsonINSt3__13mapENS2_6vectorENS2_12basic_stringIcNS2_11char_traitsIcEENS2_9allocatorIcEEEEbxydS8_NS0_14adl_serializerENS4_IhNS8_IhEEEEE9push_backEOSE_, symObjAddr: 0x33C0, symBinAddr: 0x935C, symSize: 0x160 }
  - { offset: 0x93A28, size: 0x8, addend: 0x0, symName: __ZN8nlohmann16json_abi_v3_11_210basic_jsonINSt3__13mapENS2_6vectorENS2_12basic_stringIcNS2_11char_traitsIcEENS2_9allocatorIcEEEEbxydS8_NS0_14adl_serializerENS4_IhNS8_IhEEEEE7to_bsonERKSE_, symObjAddr: 0x3684, symBinAddr: 0x9620, symSize: 0xD0 }
  - { offset: 0x93EB4, size: 0x8, addend: 0x0, symName: __ZN8nlohmann16json_abi_v3_11_26detail10type_error6createIPNS0_10basic_jsonINSt3__13mapENS5_6vectorENS5_12basic_stringIcNS5_11char_traitsIcEENS5_9allocatorIcEEEEbxydSB_NS0_14adl_serializerENS7_IhNSB_IhEEEEEELi0EEES2_iRKSD_T_, symObjAddr: 0xCDB8, symBinAddr: 0x12B90, symSize: 0x1CC }
  - { offset: 0x94CD9, size: 0x8, addend: 0x0, symName: __ZNSt3__114__split_bufferIN8nlohmann16json_abi_v3_11_210basic_jsonINS_3mapENS_6vectorENS_12basic_stringIcNS_11char_traitsIcEENS_9allocatorIcEEEEbxydS9_NS2_14adl_serializerENS5_IhNS9_IhEEEEEERNS9_ISF_EEED1Ev, symObjAddr: 0xB8C8, symBinAddr: 0x116F0, symSize: 0x54 }
  - { offset: 0x952AE, size: 0x8, addend: 0x0, symName: __ZN8nlohmann16json_abi_v3_11_210basic_jsonINSt3__13mapENS2_6vectorENS2_12basic_stringIcNS2_11char_traitsIcEENS2_9allocatorIcEEEEbxydS8_NS0_14adl_serializerENS4_IhNS8_IhEEEEE2atIRKPKcLi0EEERSE_OT_, symObjAddr: 0x4820, symBinAddr: 0xA7BC, symSize: 0x1F0 }
  - { offset: 0x95903, size: 0x8, addend: 0x0, symName: __ZN8nlohmann16json_abi_v3_11_210basic_jsonINSt3__13mapENS2_6vectorENS2_12basic_stringIcNS2_11char_traitsIcEENS2_9allocatorIcEEEEbxydS8_NS0_14adl_serializerENS4_IhNS8_IhEEEEEC2ESt16initializer_listINS0_6detail8json_refISE_EEEbNSG_7value_tE, symObjAddr: 0xFEC4, symBinAddr: 0x1596C, symSize: 0x288 }
  - { offset: 0x9621A, size: 0x8, addend: 0x0, symName: __ZN8nlohmann16json_abi_v3_11_26detail20external_constructorILNS1_7value_tE3EE9constructINS0_10basic_jsonINSt3__13mapENS7_6vectorENS7_12basic_stringIcNS7_11char_traitsIcEENS7_9allocatorIcEEEEbxydSD_NS0_14adl_serializerENS9_IhNSD_IhEEEEEEA4_cLi0EEEvRT_RKT0_, symObjAddr: 0x10738, symBinAddr: 0x161E0, symSize: 0xEC }
  - { offset: 0x96830, size: 0x8, addend: 0x0, symName: __ZN8nlohmann16json_abi_v3_11_210basic_jsonINSt3__13mapENS2_6vectorENS2_12basic_stringIcNS2_11char_traitsIcEENS2_9allocatorIcEEEEbxydS8_NS0_14adl_serializerENS4_IhNS8_IhEEEEEixESA_, symObjAddr: 0xCC98, symBinAddr: 0x12A70, symSize: 0x120 }
  - { offset: 0x96C1E, size: 0x8, addend: 0x0, symName: __ZNSt3__16vectorIN8nlohmann16json_abi_v3_11_210basic_jsonINS_3mapES0_NS_12basic_stringIcNS_11char_traitsIcEENS_9allocatorIcEEEEbxydS8_NS2_14adl_serializerENS0_IhNS8_IhEEEEEENS8_ISE_EEE21__push_back_slow_pathISE_EEPSE_OT_, symObjAddr: 0xB91C, symBinAddr: 0x11744, symSize: 0x114 }
  - { offset: 0x970FF, size: 0x8, addend: 0x0, symName: __ZNK8nlohmann16json_abi_v3_11_210basic_jsonINSt3__13mapENS2_6vectorENS2_12basic_stringIcNS2_11char_traitsIcEENS2_9allocatorIcEEEEbxydS8_NS0_14adl_serializerENS4_IhNS8_IhEEEEE9type_nameEv, symObjAddr: 0xA12C, symBinAddr: 0x10008, symSize: 0x28 }
  - { offset: 0x97247, size: 0x8, addend: 0x0, symName: __ZNSt3__16vectorIN8nlohmann16json_abi_v3_11_210basic_jsonINS_3mapES0_NS_12basic_stringIcNS_11char_traitsIcEENS_9allocatorIcEEEEbxydS8_NS2_14adl_serializerENS0_IhNS8_IhEEEEEENS8_ISE_EEE21__push_back_slow_pathIRKSE_EEPSE_OT_, symObjAddr: 0xD390, symBinAddr: 0x13168, symSize: 0x154 }
  - { offset: 0x97C86, size: 0x8, addend: 0x0, symName: __ZN8nlohmann16json_abi_v3_11_210basic_jsonINSt3__13mapENS2_6vectorENS2_12basic_stringIcNS2_11char_traitsIcEENS2_9allocatorIcEEEEbxydS8_NS0_14adl_serializerENS4_IhNS8_IhEEEEE7to_bsonERKSE_NS0_6detail14output_adapterIhNS5_IhNS6_IhEESC_EEEE, symObjAddr: 0xD4E4, symBinAddr: 0x132BC, symSize: 0xE0 }
  - { offset: 0x97FAD, size: 0x8, addend: 0x0, symName: __ZN8nlohmann16json_abi_v3_11_26detail14output_adapterIhNSt3__112basic_stringIhNS3_11char_traitsIhEENS3_9allocatorIhEEEEED1Ev, symObjAddr: 0xD5C4, symBinAddr: 0x1339C, symSize: 0x60 }
  - { offset: 0x98257, size: 0x8, addend: 0x0, symName: __ZN7facesdk15LivenessSession16addDataToPackageEPKhRKN8nlohmann16json_abi_v3_11_210basic_jsonINSt3__13mapENS6_6vectorENS6_12basic_stringIcNS6_11char_traitsIcEENS6_9allocatorIcEEEEbxydSC_NS4_14adl_serializerENS8_IhNSC_IhEEEEEE, symObjAddr: 0x3754, symBinAddr: 0x96F0, symSize: 0xE8 }
  - { offset: 0x984CB, size: 0x8, addend: 0x0, symName: __ZN7facesdk15LivenessSession12saveDepthMapEPKhRKN8nlohmann16json_abi_v3_11_210basic_jsonINSt3__13mapENS6_6vectorENS6_12basic_stringIcNS6_11char_traitsIcEENS6_9allocatorIcEEEEbxydSC_NS4_14adl_serializerENS8_IhNSC_IhEEEEEE, symObjAddr: 0x383C, symBinAddr: 0x97D8, symSize: 0x4DC }
  - { offset: 0x995EC, size: 0x8, addend: 0x0, symName: __ZN7facesdk15LivenessSession14saveCustomDataEPKhRKN8nlohmann16json_abi_v3_11_210basic_jsonINSt3__13mapENS6_6vectorENS6_12basic_stringIcNS6_11char_traitsIcEENS6_9allocatorIcEEEEbxydSC_NS4_14adl_serializerENS8_IhNSC_IhEEEEEE, symObjAddr: 0x3D18, symBinAddr: 0x9CB4, symSize: 0x200 }
  - { offset: 0x9A6D4, size: 0x8, addend: 0x0, symName: __ZNK8nlohmann16json_abi_v3_11_210basic_jsonINSt3__13mapENS2_6vectorENS2_12basic_stringIcNS2_11char_traitsIcEENS2_9allocatorIcEEEEbxydS8_NS0_14adl_serializerENS4_IhNS8_IhEEEEE2atIRA9_KcLi0EEERKSE_OT_, symObjAddr: 0x3F18, symBinAddr: 0x9EB4, symSize: 0x1EC }
  - { offset: 0x9AD41, size: 0x8, addend: 0x0, symName: __ZNK8nlohmann16json_abi_v3_11_210basic_jsonINSt3__13mapENS2_6vectorENS2_12basic_stringIcNS2_11char_traitsIcEENS2_9allocatorIcEEEEbxydS8_NS0_14adl_serializerENS4_IhNS8_IhEEEEE2atIRA10_KcLi0EEERKSE_OT_, symObjAddr: 0x4104, symBinAddr: 0xA0A0, symSize: 0x1EC }
  - { offset: 0x9B3AE, size: 0x8, addend: 0x0, symName: __ZNK8nlohmann16json_abi_v3_11_210basic_jsonINSt3__13mapENS2_6vectorENS2_12basic_stringIcNS2_11char_traitsIcEENS2_9allocatorIcEEEEbxydS8_NS0_14adl_serializerENS4_IhNS8_IhEEEEE2atIRA6_KcLi0EEERKSE_OT_, symObjAddr: 0x42F0, symBinAddr: 0xA28C, symSize: 0x1EC }
  - { offset: 0x9BA25, size: 0x8, addend: 0x0, symName: __ZNSt3__16vectorIN7facesdk12LFrameResultENS_9allocatorIS2_EEE24__emplace_back_slow_pathIJEEEPS2_DpOT_, symObjAddr: 0xC5AC, symBinAddr: 0x12384, symSize: 0x1A4 }
  - { offset: 0x9BCAD, size: 0x8, addend: 0x0, symName: __ZN8nlohmann16json_abi_v3_11_210basic_jsonINSt3__13mapENS2_6vectorENS2_12basic_stringIcNS2_11char_traitsIcEENS2_9allocatorIcEEEEbxydS8_NS0_14adl_serializerENS4_IhNS8_IhEEEEE12emplace_backIJRKSE_EEERSE_DpOT_, symObjAddr: 0x46C8, symBinAddr: 0xA664, symSize: 0x158 }
  - { offset: 0x9C183, size: 0x8, addend: 0x0, symName: __ZN8nlohmann16json_abi_v3_11_26detail10type_error6createIPKNS0_10basic_jsonINSt3__13mapENS5_6vectorENS5_12basic_stringIcNS5_11char_traitsIcEENS5_9allocatorIcEEEEbxydSB_NS0_14adl_serializerENS7_IhNSB_IhEEEEEELi0EEES2_iRKSD_T_, symObjAddr: 0x9EDC, symBinAddr: 0xFDB8, symSize: 0x1CC }
  - { offset: 0x9CF95, size: 0x8, addend: 0x0, symName: __ZN8nlohmann16json_abi_v3_11_26detail12out_of_range6createIPKNS0_10basic_jsonINSt3__13mapENS5_6vectorENS5_12basic_stringIcNS5_11char_traitsIcEENS5_9allocatorIcEEEEbxydSB_NS0_14adl_serializerENS7_IhNSB_IhEEEEEELi0EEES2_iRKSD_T_, symObjAddr: 0xE110, symBinAddr: 0x13E88, symSize: 0x1D0 }
  - { offset: 0x9E2CE, size: 0x8, addend: 0x0, symName: __ZNSt3__16vectorIN8nlohmann16json_abi_v3_11_210basic_jsonINS_3mapES0_NS_12basic_stringIcNS_11char_traitsIcEENS_9allocatorIcEEEEbxydS8_NS2_14adl_serializerENS0_IhNS8_IhEEEEEENS8_ISE_EEE24__emplace_back_slow_pathIJRKSE_EEEPSE_DpOT_, symObjAddr: 0xF278, symBinAddr: 0x14D20, symSize: 0x154 }
  - { offset: 0x9E89F, size: 0x8, addend: 0x0, symName: __ZN8nlohmann16json_abi_v3_11_26detail12out_of_range6createIPNS0_10basic_jsonINSt3__13mapENS5_6vectorENS5_12basic_stringIcNS5_11char_traitsIcEENS5_9allocatorIcEEEEbxydSB_NS0_14adl_serializerENS7_IhNSB_IhEEEEEELi0EEES2_iRKSD_T_, symObjAddr: 0xFCF4, symBinAddr: 0x1579C, symSize: 0x1D0 }
  - { offset: 0xA02AA, size: 0x8, addend: 0x0, symName: __ZN7facesdk14LSessionParamsC2ERKN8nlohmann16json_abi_v3_11_210basic_jsonINSt3__13mapENS4_6vectorENS4_12basic_stringIcNS4_11char_traitsIcEENS4_9allocatorIcEEEEbxydSA_NS2_14adl_serializerENS6_IhNSA_IhEEEEEE, symObjAddr: 0x4A10, symBinAddr: 0xA9AC, symSize: 0xE0C }
  - { offset: 0xA2885, size: 0x8, addend: 0x0, symName: __ZNK8nlohmann16json_abi_v3_11_210basic_jsonINSt3__13mapENS2_6vectorENS2_12basic_stringIcNS2_11char_traitsIcEENS2_9allocatorIcEEEEbxydS8_NS0_14adl_serializerENS4_IhNS8_IhEEEEE5valueIN7facesdk12eFL_ScenarioERA9_KcSH_Li0EEET1_OT0_OT_, symObjAddr: 0x581C, symBinAddr: 0xB7B8, symSize: 0x1F0 }
  - { offset: 0xA2FDB, size: 0x8, addend: 0x0, symName: __ZNK8nlohmann16json_abi_v3_11_210basic_jsonINSt3__13mapENS2_6vectorENS2_12basic_stringIcNS2_11char_traitsIcEENS2_9allocatorIcEEEEbxydS8_NS0_14adl_serializerENS4_IhNS8_IhEEEEE2atIRA14_KcLi0EEERKSE_OT_, symObjAddr: 0x5A0C, symBinAddr: 0xB9A8, symSize: 0x1EC }
  - { offset: 0xA3652, size: 0x8, addend: 0x0, symName: __ZNK8nlohmann16json_abi_v3_11_210basic_jsonINSt3__13mapENS2_6vectorENS2_12basic_stringIcNS2_11char_traitsIcEENS2_9allocatorIcEEEEbxydS8_NS0_14adl_serializerENS4_IhNS8_IhEEEEE5valueIRA41_KcRA16_SG_SA_Li0EEET1_OT0_OT_, symObjAddr: 0x5BF8, symBinAddr: 0xBB94, symSize: 0x280 }
  - { offset: 0xA42C5, size: 0x8, addend: 0x0, symName: __ZN8nlohmann16json_abi_v3_11_210basic_jsonINSt3__13mapENS2_6vectorENS2_12basic_stringIcNS2_11char_traitsIcEENS2_9allocatorIcEEEEbxydS8_NS0_14adl_serializerENS4_IhNS8_IhEEEEE6acceptIRSA_EEbOT_b, symObjAddr: 0x5E78, symBinAddr: 0xBE14, symSize: 0x1D0 }
  - { offset: 0xA4B88, size: 0x8, addend: 0x0, symName: __ZNK8nlohmann16json_abi_v3_11_210basic_jsonINSt3__13mapENS2_6vectorENS2_12basic_stringIcNS2_11char_traitsIcEENS2_9allocatorIcEEEEbxydS8_NS0_14adl_serializerENS4_IhNS8_IhEEEEE2atIRA11_KcLi0EEERKSE_OT_, symObjAddr: 0x6048, symBinAddr: 0xBFE4, symSize: 0x1EC }
  - { offset: 0xA51DD, size: 0x8, addend: 0x0, symName: __ZNK8nlohmann16json_abi_v3_11_210basic_jsonINSt3__13mapENS2_6vectorENS2_12basic_stringIcNS2_11char_traitsIcEENS2_9allocatorIcEEEEbxydS8_NS0_14adl_serializerENS4_IhNS8_IhEEEEE2atIRA12_KcLi0EEERKSE_OT_, symObjAddr: 0x6234, symBinAddr: 0xC1D0, symSize: 0x1EC }
  - { offset: 0xA5832, size: 0x8, addend: 0x0, symName: __ZNK8nlohmann16json_abi_v3_11_210basic_jsonINSt3__13mapENS2_6vectorENS2_12basic_stringIcNS2_11char_traitsIcEENS2_9allocatorIcEEEEbxydS8_NS0_14adl_serializerENS4_IhNS8_IhEEEEE5valueIiRA14_KciLi0EEET1_OT0_OT_, symObjAddr: 0x6420, symBinAddr: 0xC3BC, symSize: 0x1F4 }
  - { offset: 0xA5F73, size: 0x8, addend: 0x0, symName: __ZNK8nlohmann16json_abi_v3_11_210basic_jsonINSt3__13mapENS2_6vectorENS2_12basic_stringIcNS2_11char_traitsIcEENS2_9allocatorIcEEEEbxydS8_NS0_14adl_serializerENS4_IhNS8_IhEEEEE2atIRA4_KcLi0EEERKSE_OT_, symObjAddr: 0x6614, symBinAddr: 0xC5B0, symSize: 0x1EC }
  - { offset: 0xA65EA, size: 0x8, addend: 0x0, symName: __ZNK8nlohmann16json_abi_v3_11_210basic_jsonINSt3__13mapENS2_6vectorENS2_12basic_stringIcNS2_11char_traitsIcEENS2_9allocatorIcEEEEbxydS8_NS0_14adl_serializerENS4_IhNS8_IhEEEEE5valueIiRA18_KciLi0EEET1_OT0_OT_, symObjAddr: 0x6800, symBinAddr: 0xC79C, symSize: 0x1F4 }
  - { offset: 0xA6D22, size: 0x8, addend: 0x0, symName: __ZNK8nlohmann16json_abi_v3_11_210basic_jsonINSt3__13mapENS2_6vectorENS2_12basic_stringIcNS2_11char_traitsIcEENS2_9allocatorIcEEEEbxydS8_NS0_14adl_serializerENS4_IhNS8_IhEEEEE5valueIiRA19_KciLi0EEET1_OT0_OT_, symObjAddr: 0x69F4, symBinAddr: 0xC990, symSize: 0x1F4 }
  - { offset: 0xA7442, size: 0x8, addend: 0x0, symName: __ZNK8nlohmann16json_abi_v3_11_210basic_jsonINSt3__13mapENS2_6vectorENS2_12basic_stringIcNS2_11char_traitsIcEENS2_9allocatorIcEEEEbxydS8_NS0_14adl_serializerENS4_IhNS8_IhEEEEE5valueIiRA16_KciLi0EEET1_OT0_OT_, symObjAddr: 0x6BE8, symBinAddr: 0xCB84, symSize: 0x1F4 }
  - { offset: 0xA7B7A, size: 0x8, addend: 0x0, symName: __ZNK8nlohmann16json_abi_v3_11_210basic_jsonINSt3__13mapENS2_6vectorENS2_12basic_stringIcNS2_11char_traitsIcEENS2_9allocatorIcEEEEbxydS8_NS0_14adl_serializerENS4_IhNS8_IhEEEEE5valueIiRA25_KciLi0EEET1_OT0_OT_, symObjAddr: 0x6DDC, symBinAddr: 0xCD78, symSize: 0x1F4 }
  - { offset: 0xA82B2, size: 0x8, addend: 0x0, symName: __ZNK8nlohmann16json_abi_v3_11_210basic_jsonINSt3__13mapENS2_6vectorENS2_12basic_stringIcNS2_11char_traitsIcEENS2_9allocatorIcEEEEbxydS8_NS0_14adl_serializerENS4_IhNS8_IhEEEEE5valueIiRA23_KciLi0EEET1_OT0_OT_, symObjAddr: 0x6FD0, symBinAddr: 0xCF6C, symSize: 0x1F4 }
  - { offset: 0xA89EA, size: 0x8, addend: 0x0, symName: __ZNK8nlohmann16json_abi_v3_11_210basic_jsonINSt3__13mapENS2_6vectorENS2_12basic_stringIcNS2_11char_traitsIcEENS2_9allocatorIcEEEEbxydS8_NS0_14adl_serializerENS4_IhNS8_IhEEEEE5valueIiRA27_KciLi0EEET1_OT0_OT_, symObjAddr: 0x71C4, symBinAddr: 0xD160, symSize: 0x1F4 }
  - { offset: 0xA910A, size: 0x8, addend: 0x0, symName: __ZNK8nlohmann16json_abi_v3_11_210basic_jsonINSt3__13mapENS2_6vectorENS2_12basic_stringIcNS2_11char_traitsIcEENS2_9allocatorIcEEEEbxydS8_NS0_14adl_serializerENS4_IhNS8_IhEEEEE5valueIfRA16_KcfLi0EEET1_OT0_OT_, symObjAddr: 0x73B8, symBinAddr: 0xD354, symSize: 0x1F4 }
  - { offset: 0xA982A, size: 0x8, addend: 0x0, symName: __ZNK8nlohmann16json_abi_v3_11_210basic_jsonINSt3__13mapENS2_6vectorENS2_12basic_stringIcNS2_11char_traitsIcEENS2_9allocatorIcEEEEbxydS8_NS0_14adl_serializerENS4_IhNS8_IhEEEEE5valueIfRA19_KcfLi0EEET1_OT0_OT_, symObjAddr: 0x75AC, symBinAddr: 0xD548, symSize: 0x1F4 }
  - { offset: 0xA9F62, size: 0x8, addend: 0x0, symName: __ZNK8nlohmann16json_abi_v3_11_210basic_jsonINSt3__13mapENS2_6vectorENS2_12basic_stringIcNS2_11char_traitsIcEENS2_9allocatorIcEEEEbxydS8_NS0_14adl_serializerENS4_IhNS8_IhEEEEE5valueIfRA17_KcfLi0EEET1_OT0_OT_, symObjAddr: 0x77A0, symBinAddr: 0xD73C, symSize: 0x1F4 }
  - { offset: 0xAA69A, size: 0x8, addend: 0x0, symName: __ZNK8nlohmann16json_abi_v3_11_210basic_jsonINSt3__13mapENS2_6vectorENS2_12basic_stringIcNS2_11char_traitsIcEENS2_9allocatorIcEEEEbxydS8_NS0_14adl_serializerENS4_IhNS8_IhEEEEE5valueIfRA20_KcfLi0EEET1_OT0_OT_, symObjAddr: 0x7994, symBinAddr: 0xD930, symSize: 0x1F4 }
  - { offset: 0xAADBA, size: 0x8, addend: 0x0, symName: __ZNK8nlohmann16json_abi_v3_11_210basic_jsonINSt3__13mapENS2_6vectorENS2_12basic_stringIcNS2_11char_traitsIcEENS2_9allocatorIcEEEEbxydS8_NS0_14adl_serializerENS4_IhNS8_IhEEEEE5valueIfRA11_KcfLi0EEET1_OT0_OT_, symObjAddr: 0x7B88, symBinAddr: 0xDB24, symSize: 0x1F4 }
  - { offset: 0xAB4F2, size: 0x8, addend: 0x0, symName: __ZNK8nlohmann16json_abi_v3_11_210basic_jsonINSt3__13mapENS2_6vectorENS2_12basic_stringIcNS2_11char_traitsIcEENS2_9allocatorIcEEEEbxydS8_NS0_14adl_serializerENS4_IhNS8_IhEEEEE5valueIfRA13_KcfLi0EEET1_OT0_OT_, symObjAddr: 0x7D7C, symBinAddr: 0xDD18, symSize: 0x1F4 }
  - { offset: 0xABC2A, size: 0x8, addend: 0x0, symName: __ZNK8nlohmann16json_abi_v3_11_210basic_jsonINSt3__13mapENS2_6vectorENS2_12basic_stringIcNS2_11char_traitsIcEENS2_9allocatorIcEEEEbxydS8_NS0_14adl_serializerENS4_IhNS8_IhEEEEE5valueIfRA21_KcfLi0EEET1_OT0_OT_, symObjAddr: 0x7F70, symBinAddr: 0xDF0C, symSize: 0x1F4 }
  - { offset: 0xAC362, size: 0x8, addend: 0x0, symName: __ZNK8nlohmann16json_abi_v3_11_210basic_jsonINSt3__13mapENS2_6vectorENS2_12basic_stringIcNS2_11char_traitsIcEENS2_9allocatorIcEEEEbxydS8_NS0_14adl_serializerENS4_IhNS8_IhEEEEE5valueIfRA15_KcfLi0EEET1_OT0_OT_, symObjAddr: 0x8164, symBinAddr: 0xE100, symSize: 0x1F4 }
  - { offset: 0xACA82, size: 0x8, addend: 0x0, symName: __ZNK8nlohmann16json_abi_v3_11_210basic_jsonINSt3__13mapENS2_6vectorENS2_12basic_stringIcNS2_11char_traitsIcEENS2_9allocatorIcEEEEbxydS8_NS0_14adl_serializerENS4_IhNS8_IhEEEEE5valueIfRA23_KcfLi0EEET1_OT0_OT_, symObjAddr: 0x8358, symBinAddr: 0xE2F4, symSize: 0x1F4 }
  - { offset: 0xAD1BA, size: 0x8, addend: 0x0, symName: __ZNK8nlohmann16json_abi_v3_11_210basic_jsonINSt3__13mapENS2_6vectorENS2_12basic_stringIcNS2_11char_traitsIcEENS2_9allocatorIcEEEEbxydS8_NS0_14adl_serializerENS4_IhNS8_IhEEEEE5valueIfRA22_KcfLi0EEET1_OT0_OT_, symObjAddr: 0x854C, symBinAddr: 0xE4E8, symSize: 0x1F4 }
  - { offset: 0xAD8DA, size: 0x8, addend: 0x0, symName: __ZNK8nlohmann16json_abi_v3_11_210basic_jsonINSt3__13mapENS2_6vectorENS2_12basic_stringIcNS2_11char_traitsIcEENS2_9allocatorIcEEEEbxydS8_NS0_14adl_serializerENS4_IhNS8_IhEEEEE5valueIfRA14_KcfLi0EEET1_OT0_OT_, symObjAddr: 0x8740, symBinAddr: 0xE6DC, symSize: 0x1F4 }
  - { offset: 0xAE000, size: 0x8, addend: 0x0, symName: __ZNK8nlohmann16json_abi_v3_11_210basic_jsonINSt3__13mapENS2_6vectorENS2_12basic_stringIcNS2_11char_traitsIcEENS2_9allocatorIcEEEEbxydS8_NS0_14adl_serializerENS4_IhNS8_IhEEEEE5valueIbRA12_KcbLi0EEET1_OT0_OT_, symObjAddr: 0x8934, symBinAddr: 0xE8D0, symSize: 0x1F0 }
  - { offset: 0xAE6A9, size: 0x8, addend: 0x0, symName: __ZNK8nlohmann16json_abi_v3_11_210basic_jsonINSt3__13mapENS2_6vectorENS2_12basic_stringIcNS2_11char_traitsIcEENS2_9allocatorIcEEEEbxydS8_NS0_14adl_serializerENS4_IhNS8_IhEEEEE5valueIbRA16_KcbLi0EEET1_OT0_OT_, symObjAddr: 0x8B24, symBinAddr: 0xEAC0, symSize: 0x1F0 }
  - { offset: 0xAED52, size: 0x8, addend: 0x0, symName: __ZNK8nlohmann16json_abi_v3_11_210basic_jsonINSt3__13mapENS2_6vectorENS2_12basic_stringIcNS2_11char_traitsIcEENS2_9allocatorIcEEEEbxydS8_NS0_14adl_serializerENS4_IhNS8_IhEEEEE5valueIbRA17_KcbLi0EEET1_OT0_OT_, symObjAddr: 0x8D14, symBinAddr: 0xECB0, symSize: 0x1F0 }
  - { offset: 0xAF3FB, size: 0x8, addend: 0x0, symName: __ZNK8nlohmann16json_abi_v3_11_210basic_jsonINSt3__13mapENS2_6vectorENS2_12basic_stringIcNS2_11char_traitsIcEENS2_9allocatorIcEEEEbxydS8_NS0_14adl_serializerENS4_IhNS8_IhEEEEE5valueIiRA13_KciLi0EEET1_OT0_OT_, symObjAddr: 0x8F04, symBinAddr: 0xEEA0, symSize: 0x1F4 }
  - { offset: 0xAFB1B, size: 0x8, addend: 0x0, symName: __ZNK8nlohmann16json_abi_v3_11_210basic_jsonINSt3__13mapENS2_6vectorENS2_12basic_stringIcNS2_11char_traitsIcEENS2_9allocatorIcEEEEbxydS8_NS0_14adl_serializerENS4_IhNS8_IhEEEEE5valueIiRA17_KciLi0EEET1_OT0_OT_, symObjAddr: 0x90F8, symBinAddr: 0xF094, symSize: 0x1F4 }
  - { offset: 0xB023B, size: 0x8, addend: 0x0, symName: __ZNK8nlohmann16json_abi_v3_11_210basic_jsonINSt3__13mapENS2_6vectorENS2_12basic_stringIcNS2_11char_traitsIcEENS2_9allocatorIcEEEEbxydS8_NS0_14adl_serializerENS4_IhNS8_IhEEEEE5valueIiRA11_KciLi0EEET1_OT0_OT_, symObjAddr: 0x92EC, symBinAddr: 0xF288, symSize: 0x1F4 }
  - { offset: 0xB0973, size: 0x8, addend: 0x0, symName: __ZNK8nlohmann16json_abi_v3_11_210basic_jsonINSt3__13mapENS2_6vectorENS2_12basic_stringIcNS2_11char_traitsIcEENS2_9allocatorIcEEEEbxydS8_NS0_14adl_serializerENS4_IhNS8_IhEEEEE5valueIRA5_KcRA15_SG_SA_Li0EEET1_OT0_OT_, symObjAddr: 0x94E0, symBinAddr: 0xF47C, symSize: 0x280 }
  - { offset: 0xB15E6, size: 0x8, addend: 0x0, symName: __ZNK8nlohmann16json_abi_v3_11_210basic_jsonINSt3__13mapENS2_6vectorENS2_12basic_stringIcNS2_11char_traitsIcEENS2_9allocatorIcEEEEbxydS8_NS0_14adl_serializerENS4_IhNS8_IhEEEEE5valueIiRA15_KciLi0EEET1_OT0_OT_, symObjAddr: 0x9760, symBinAddr: 0xF6FC, symSize: 0x1F4 }
  - { offset: 0xB1F5D, size: 0x8, addend: 0x0, symName: __ZNK8nlohmann16json_abi_v3_11_26detail9iter_implIKNS0_10basic_jsonINSt3__13mapENS4_6vectorENS4_12basic_stringIcNS4_11char_traitsIcEENS4_9allocatorIcEEEEbxydSA_NS0_14adl_serializerENS6_IhNSA_IhEEEEEEEeqISI_LDn0EEEbRKT_, symObjAddr: 0xA970, symBinAddr: 0x1084C, symSize: 0x108 }
  - { offset: 0xB21B1, size: 0x8, addend: 0x0, symName: __ZNK8nlohmann16json_abi_v3_11_26detail9iter_implIKNS0_10basic_jsonINSt3__13mapENS4_6vectorENS4_12basic_stringIcNS4_11char_traitsIcEENS4_9allocatorIcEEEEbxydSA_NS0_14adl_serializerENS6_IhNSA_IhEEEEEEEptEv, symObjAddr: 0x10824, symBinAddr: 0x162CC, symSize: 0x100 }
  - { offset: 0xB2BB2, size: 0x8, addend: 0x0, symName: __ZN8nlohmann16json_abi_v3_11_26detail6parserINS0_10basic_jsonINSt3__13mapENS4_6vectorENS4_12basic_stringIcNS4_11char_traitsIcEENS4_9allocatorIcEEEEbxydSA_NS0_14adl_serializerENS6_IhNSA_IhEEEEEENS1_22iterator_input_adapterINS4_11__wrap_iterIPKcEEEEEC2EOSM_NS4_8functionIFbiNS1_13parse_event_tERSG_EEEbb, symObjAddr: 0x10D1C, symBinAddr: 0x167C4, symSize: 0x134 }
  - { offset: 0xB2DF2, size: 0x8, addend: 0x0, symName: __ZN8nlohmann16json_abi_v3_11_26detail6parserINS0_10basic_jsonINSt3__13mapENS4_6vectorENS4_12basic_stringIcNS4_11char_traitsIcEENS4_9allocatorIcEEEEbxydSA_NS0_14adl_serializerENS6_IhNSA_IhEEEEEENS1_22iterator_input_adapterINS4_11__wrap_iterIPKcEEEEE9sax_parseINS1_17json_sax_acceptorISG_EEEEbPT_b, symObjAddr: 0x12C30, symBinAddr: 0x186C4, symSize: 0x22C }
  - { offset: 0xB3816, size: 0x8, addend: 0x0, symName: __ZN8nlohmann16json_abi_v3_11_26detail6parserINS0_10basic_jsonINSt3__13mapENS4_6vectorENS4_12basic_stringIcNS4_11char_traitsIcEENS4_9allocatorIcEEEEbxydSA_NS0_14adl_serializerENS6_IhNSA_IhEEEEEENS1_22iterator_input_adapterINS4_11__wrap_iterIPKcEEEEED1Ev, symObjAddr: 0x10CA4, symBinAddr: 0x1674C, symSize: 0x78 }
  - { offset: 0xB520B, size: 0x8, addend: 0x0, symName: __ZNK8nlohmann16json_abi_v3_11_210basic_jsonINSt3__13mapENS2_6vectorENS2_12basic_stringIcNS2_11char_traitsIcEENS2_9allocatorIcEEEEbxydS8_NS0_14adl_serializerENS4_IhNS8_IhEEEEE8get_implIbLi0EEET_NS0_6detail12priority_tagILj0EEE, symObjAddr: 0x14944, symBinAddr: 0x1A3C4, symSize: 0x124 }
  - { offset: 0xB567D, size: 0x8, addend: 0x0, symName: __ZN7facesdk14LSessionParamsC1ERKN8nlohmann16json_abi_v3_11_210basic_jsonINSt3__13mapENS4_6vectorENS4_12basic_stringIcNS4_11char_traitsIcEENS4_9allocatorIcEEEEbxydSA_NS2_14adl_serializerENS6_IhNSA_IhEEEEEE, symObjAddr: 0x9954, symBinAddr: 0xF8F0, symSize: 0x4 }
  - { offset: 0xB56BB, size: 0x8, addend: 0x0, symName: __ZN7facesdk14LSessionParamsC1ERKN8nlohmann16json_abi_v3_11_210basic_jsonINSt3__13mapENS4_6vectorENS4_12basic_stringIcNS4_11char_traitsIcEENS4_9allocatorIcEEEEbxydSA_NS2_14adl_serializerENS6_IhNSA_IhEEEEEE, symObjAddr: 0x9954, symBinAddr: 0xF8F0, symSize: 0x4 }
  - { offset: 0xB5CF2, size: 0x8, addend: 0x0, symName: __ZN8nlohmann16json_abi_v3_11_26detail10type_errorD1Ev, symObjAddr: 0xA154, symBinAddr: 0x10030, symSize: 0x30 }
  - { offset: 0xB5DCE, size: 0x8, addend: 0x0, symName: __ZN8nlohmann16json_abi_v3_11_26detail10type_errorD0Ev, symObjAddr: 0xA3AC, symBinAddr: 0x10288, symSize: 0x34 }
  - { offset: 0xB5E4F, size: 0x8, addend: 0x0, symName: __ZNK8nlohmann16json_abi_v3_11_26detail9exception4whatEv, symObjAddr: 0xA3E0, symBinAddr: 0x102BC, symSize: 0x8 }
  - { offset: 0xB5E76, size: 0x8, addend: 0x0, symName: __ZN8nlohmann16json_abi_v3_11_26detail9exceptionD1Ev, symObjAddr: 0xA3E8, symBinAddr: 0x102C4, symSize: 0x30 }
  - { offset: 0xB5ED2, size: 0x8, addend: 0x0, symName: __ZN8nlohmann16json_abi_v3_11_26detail9exceptionD0Ev, symObjAddr: 0xA418, symBinAddr: 0x102F4, symSize: 0x34 }
  - { offset: 0xB6320, size: 0x8, addend: 0x0, symName: __ZNK8nlohmann16json_abi_v3_11_26detail9iter_implIKNS0_10basic_jsonINSt3__13mapENS4_6vectorENS4_12basic_stringIcNS4_11char_traitsIcEENS4_9allocatorIcEEEEbxydSA_NS0_14adl_serializerENS6_IhNSA_IhEEEEEEEdeEv, symObjAddr: 0xA800, symBinAddr: 0x106DC, symSize: 0x170 }
  - { offset: 0xB65B2, size: 0x8, addend: 0x0, symName: __ZNSt3__16vectorIjNS_9allocatorIjEEE6insertENS_11__wrap_iterIPKjEEOj, symObjAddr: 0xADDC, symBinAddr: 0x10CB8, symSize: 0x374 }
  - { offset: 0xB7067, size: 0x8, addend: 0x0, symName: __ZN8nlohmann16json_abi_v3_11_26detail16invalid_iterator6createIPKNS0_10basic_jsonINSt3__13mapENS5_6vectorENS5_12basic_stringIcNS5_11char_traitsIcEENS5_9allocatorIcEEEEbxydSB_NS0_14adl_serializerENS7_IhNSB_IhEEEEEELi0EEES2_iRKSD_T_, symObjAddr: 0xAA78, symBinAddr: 0x10954, symSize: 0x1C4 }
  - { offset: 0xB7ED3, size: 0x8, addend: 0x0, symName: __ZN8nlohmann16json_abi_v3_11_26detail16invalid_iteratorD1Ev, symObjAddr: 0xAC3C, symBinAddr: 0x10B18, symSize: 0x30 }
  - { offset: 0xB7F4D, size: 0x8, addend: 0x0, symName: __ZN8nlohmann16json_abi_v3_11_26detail16invalid_iteratorD0Ev, symObjAddr: 0xAC6C, symBinAddr: 0x10B48, symSize: 0x34 }
  - { offset: 0xB8732, size: 0x8, addend: 0x0, symName: __ZNSt3__16vectorIN8nlohmann16json_abi_v3_11_210basic_jsonINS_3mapES0_NS_12basic_stringIcNS_11char_traitsIcEENS_9allocatorIcEEEEbxydS8_NS2_14adl_serializerENS0_IhNS8_IhEEEEEENS8_ISE_EEE7reserveEm, symObjAddr: 0xB7DC, symBinAddr: 0x11618, symSize: 0xD8 }
  - { offset: 0xB8B46, size: 0x8, addend: 0x0, symName: __ZNSt3__16__treeINS_12__value_typeINS_12basic_stringIcNS_11char_traitsIcEENS_9allocatorIcEEEEN8nlohmann16json_abi_v3_11_210basic_jsonINS_3mapENS_6vectorES7_bxydS5_NS9_14adl_serializerENSC_IhNS5_IhEEEEEEEENS_19__map_value_compareIS7_SH_NS_4lessIvEELb1EEENS5_ISH_EEE7destroyEPNS_11__tree_nodeISH_PvEE, symObjAddr: 0xBA30, symBinAddr: 0x11858, symSize: 0x78 }
  - { offset: 0xB8E07, size: 0x8, addend: 0x0, symName: __ZNSt3__16vectorIN8nlohmann16json_abi_v3_11_210basic_jsonINS_3mapES0_NS_12basic_stringIcNS_11char_traitsIcEENS_9allocatorIcEEEEbxydS8_NS2_14adl_serializerENS0_IhNS8_IhEEEEEENS8_ISE_EEED2B8ne180100Ev, symObjAddr: 0xBAA8, symBinAddr: 0x118D0, symSize: 0x5C }
  - { offset: 0xB8F7D, size: 0x8, addend: 0x0, symName: __ZNSt3__114__split_bufferIN8nlohmann16json_abi_v3_11_210basic_jsonINS_3mapENS_6vectorENS_12basic_stringIcNS_11char_traitsIcEENS_9allocatorIcEEEEbxydS9_NS2_14adl_serializerENS5_IhNS9_IhEEEEEERNS9_ISF_EEED1Ev, symObjAddr: 0xB8C8, symBinAddr: 0x116F0, symSize: 0x54 }
  - { offset: 0xB97FE, size: 0x8, addend: 0x0, symName: __ZN7facesdk12LStageResultC2ERKS0_, symObjAddr: 0xBE74, symBinAddr: 0x11C88, symSize: 0x254 }
  - { offset: 0xB9F43, size: 0x8, addend: 0x0, symName: __ZN7facesdk12LStageResultC2ERKS0_, symObjAddr: 0xBE74, symBinAddr: 0x11C88, symSize: 0x254 }
  - { offset: 0xB9F4E, size: 0x8, addend: 0x0, symName: __ZNSt3__16vectorIN7facesdk12LStageResultENS_9allocatorIS2_EEE24__emplace_back_slow_pathIJEEEPS2_DpOT_.cold.1, symObjAddr: 0x14A68, symBinAddr: 0xC552BC, symSize: 0x58 }
  - { offset: 0xBA255, size: 0x8, addend: 0x0, symName: __ZNSt3__114__split_bufferIN7facesdk12LStageResultERNS_9allocatorIS2_EEED1Ev, symObjAddr: 0xBDE0, symBinAddr: 0x11C08, symSize: 0x80 }
  - { offset: 0xBAA1F, size: 0x8, addend: 0x0, symName: __ZNSt3__135__uninitialized_allocator_copy_implB8ne180100INS_9allocatorIN7facesdk12LFrameResultEEEPS3_S5_S5_EET2_RT_T0_T1_S6_, symObjAddr: 0xC0DC, symBinAddr: 0x11EDC, symSize: 0xE8 }
  - { offset: 0xBAB65, size: 0x8, addend: 0x0, symName: __ZNSt3__16vectorIN7facesdk5LFaceENS_9allocatorIS2_EEEC2ERKS5_, symObjAddr: 0xC27C, symBinAddr: 0x1207C, symSize: 0xE0 }
  - { offset: 0xBAE13, size: 0x8, addend: 0x0, symName: __ZNSt3__135__uninitialized_allocator_copy_implB8ne180100INS_9allocatorIN7facesdk12LFrameResultEEEPS3_S5_S5_EET2_RT_T0_T1_S6_.cold.1, symObjAddr: 0x14AC0, symBinAddr: 0xC55314, symSize: 0x60 }
  - { offset: 0xBB122, size: 0x8, addend: 0x0, symName: __ZNSt3__128__exception_guard_exceptionsINS_29_AllocatorDestroyRangeReverseINS_9allocatorIN7facesdk12LFrameResultEEEPS4_EEED1B8ne180100Ev, symObjAddr: 0xC1C4, symBinAddr: 0x11FC4, symSize: 0xB8 }
  - { offset: 0xBB704, size: 0x8, addend: 0x0, symName: __ZNSt3__135__uninitialized_allocator_copy_implB8ne180100INS_9allocatorIN7facesdk5LFaceEEEPS3_S5_S5_EET2_RT_T0_T1_S6_, symObjAddr: 0xC370, symBinAddr: 0x1215C, symSize: 0x1C8 }
  - { offset: 0xBB70F, size: 0x8, addend: 0x0, symName: __ZNSt3__16vectorIN7facesdk5LFaceENS_9allocatorIS2_EEEC2ERKS5_.cold.1, symObjAddr: 0x14B20, symBinAddr: 0xC55374, symSize: 0x60 }
  - { offset: 0xBBAE6, size: 0x8, addend: 0x0, symName: __ZNSt3__128__exception_guard_exceptionsINS_29_AllocatorDestroyRangeReverseINS_9allocatorIN7facesdk5LFaceEEEPS4_EEED1B8ne180100Ev, symObjAddr: 0xC538, symBinAddr: 0x12324, symSize: 0x60 }
  - { offset: 0xBC066, size: 0x8, addend: 0x0, symName: __ZNSt3__114__split_bufferIN7facesdk12LFrameResultERNS_9allocatorIS2_EEED2Ev, symObjAddr: 0xC750, symBinAddr: 0x12528, symSize: 0xB0 }
  - { offset: 0xBC547, size: 0x8, addend: 0x0, symName: __ZNSt12out_of_rangeC1B8ne180100EPKc, symObjAddr: 0xC864, symBinAddr: 0x1263C, symSize: 0x24 }
  - { offset: 0xBC688, size: 0x8, addend: 0x0, symName: __ZNSt3__16__treeINS_12__value_typeINS_12basic_stringIcNS_11char_traitsIcEENS_9allocatorIcEEEEN8nlohmann16json_abi_v3_11_210basic_jsonINS_3mapENS_6vectorES7_bxydS5_NS9_14adl_serializerENSC_IhNS5_IhEEEEEEEENS_19__map_value_compareIS7_SH_NS_4lessIvEELb1EEENS5_ISH_EEE25__emplace_unique_key_argsIS7_JS7_DnEEENS_4pairINS_15__tree_iteratorISH_PNS_11__tree_nodeISH_PvEElEEbEERKT_DpOT0_, symObjAddr: 0xD008, symBinAddr: 0x12DE0, symSize: 0x178 }
  - { offset: 0xBCCB3, size: 0x8, addend: 0x0, symName: __ZNSt3__110unique_ptrINS_11__tree_nodeINS_12__value_typeINS_12basic_stringIcNS_11char_traitsIcEENS_9allocatorIcEEEEN8nlohmann16json_abi_v3_11_210basic_jsonINS_3mapENS_6vectorES8_bxydS6_NSA_14adl_serializerENSD_IhNS6_IhEEEEEEEEPvEENS_22__tree_node_destructorINS6_ISK_EEEEED1B8ne180100Ev, symObjAddr: 0xD180, symBinAddr: 0x12F58, symSize: 0x5C }
  - { offset: 0xBD1CD, size: 0x8, addend: 0x0, symName: __ZN8nlohmann16json_abi_v3_11_26detail13binary_writerINS0_10basic_jsonINSt3__13mapENS4_6vectorENS4_12basic_stringIcNS4_11char_traitsIcEENS4_9allocatorIcEEEEbxydSA_NS0_14adl_serializerENS6_IhNSA_IhEEEEEEhE10write_bsonERKSG_, symObjAddr: 0xD624, symBinAddr: 0x133FC, symSize: 0xDC }
  - { offset: 0xBD3A5, size: 0x8, addend: 0x0, symName: __ZN8nlohmann16json_abi_v3_11_26detail13binary_writerINS0_10basic_jsonINSt3__13mapENS4_6vectorENS4_12basic_stringIcNS4_11char_traitsIcEENS4_9allocatorIcEEEEbxydSA_NS0_14adl_serializerENS6_IhNSA_IhEEEEEEhED1Ev, symObjAddr: 0xD700, symBinAddr: 0x134D8, symSize: 0x60 }
  - { offset: 0xBD4E2, size: 0x8, addend: 0x0, symName: __ZN8nlohmann16json_abi_v3_11_26detail13binary_writerINS0_10basic_jsonINSt3__13mapENS4_6vectorENS4_12basic_stringIcNS4_11char_traitsIcEENS4_9allocatorIcEEEEbxydSA_NS0_14adl_serializerENS6_IhNSA_IhEEEEEEhE17write_bson_objectERKNS5_ISC_SG_NS4_4lessIvEENSA_INS4_4pairIKSC_SG_EEEEEE, symObjAddr: 0xD7C0, symBinAddr: 0x13538, symSize: 0x170 }
  - { offset: 0xBDB05, size: 0x8, addend: 0x0, symName: __ZN8nlohmann16json_abi_v3_11_26detail13binary_writerINS0_10basic_jsonINSt3__13mapENS4_6vectorENS4_12basic_stringIcNS4_11char_traitsIcEENS4_9allocatorIcEEEEbxydSA_NS0_14adl_serializerENS6_IhNSA_IhEEEEEEhE22calc_bson_element_sizeERKSC_RKSG_, symObjAddr: 0xDE00, symBinAddr: 0x13B78, symSize: 0x1E4 }
  - { offset: 0xBE114, size: 0x8, addend: 0x0, symName: __ZN8nlohmann16json_abi_v3_11_26detail13binary_writerINS0_10basic_jsonINSt3__13mapENS4_6vectorENS4_12basic_stringIcNS4_11char_traitsIcEENS4_9allocatorIcEEEEbxydSA_NS0_14adl_serializerENS6_IhNSA_IhEEEEEEhE18write_bson_elementERKSC_RKSG_, symObjAddr: 0xD9B4, symBinAddr: 0x1372C, symSize: 0x44C }
  - { offset: 0xBEC3F, size: 0x8, addend: 0x0, symName: __ZN8nlohmann16json_abi_v3_11_26detail13binary_writerINS0_10basic_jsonINSt3__13mapENS4_6vectorENS4_12basic_stringIcNS4_11char_traitsIcEENS4_9allocatorIcEEEEbxydSA_NS0_14adl_serializerENS6_IhNSA_IhEEEEEEhE16write_bson_arrayERKSC_RKNS6_ISG_NSA_ISG_EEEE, symObjAddr: 0xE40C, symBinAddr: 0x14184, symSize: 0x1D0 }
  - { offset: 0xBF306, size: 0x8, addend: 0x0, symName: __ZN8nlohmann16json_abi_v3_11_26detail13binary_writerINS0_10basic_jsonINSt3__13mapENS4_6vectorENS4_12basic_stringIcNS4_11char_traitsIcEENS4_9allocatorIcEEEEbxydSA_NS0_14adl_serializerENS6_IhNSA_IhEEEEEEhE18write_bson_integerERKSC_x, symObjAddr: 0xE6F0, symBinAddr: 0x14468, symSize: 0x17C }
  - { offset: 0xBF72E, size: 0x8, addend: 0x0, symName: __ZN8nlohmann16json_abi_v3_11_26detail13binary_writerINS0_10basic_jsonINSt3__13mapENS4_6vectorENS4_12basic_stringIcNS4_11char_traitsIcEENS4_9allocatorIcEEEEbxydSA_NS0_14adl_serializerENS6_IhNSA_IhEEEEEEhE19write_bson_unsignedERKSC_RKSG_, symObjAddr: 0xE86C, symBinAddr: 0x145E4, symSize: 0x280 }
  - { offset: 0xBFE49, size: 0x8, addend: 0x0, symName: __ZN8nlohmann16json_abi_v3_11_26detail13binary_writerINS0_10basic_jsonINSt3__13mapENS4_6vectorENS4_12basic_stringIcNS4_11char_traitsIcEENS4_9allocatorIcEEEEbxydSA_NS0_14adl_serializerENS6_IhNSA_IhEEEEEEhE17write_bson_binaryERKSC_RKNS0_27byte_container_with_subtypeISF_EE, symObjAddr: 0xE5DC, symBinAddr: 0x14354, symSize: 0x114 }
  - { offset: 0xC0311, size: 0x8, addend: 0x0, symName: __ZN8nlohmann16json_abi_v3_11_26detail13binary_writerINS0_10basic_jsonINSt3__13mapENS4_6vectorENS4_12basic_stringIcNS4_11char_traitsIcEENS4_9allocatorIcEEEEbxydSA_NS0_14adl_serializerENS6_IhNSA_IhEEEEEEhE27calc_bson_entry_header_sizeERKSC_RKSG_, symObjAddr: 0xDFE4, symBinAddr: 0x13D5C, symSize: 0x12C }
  - { offset: 0xC06AA, size: 0x8, addend: 0x0, symName: __ZN8nlohmann16json_abi_v3_11_26detail12out_of_rangeD1Ev, symObjAddr: 0xE3A8, symBinAddr: 0x14120, symSize: 0x30 }
  - { offset: 0xC0724, size: 0x8, addend: 0x0, symName: __ZN8nlohmann16json_abi_v3_11_26detail12out_of_rangeD0Ev, symObjAddr: 0xE3D8, symBinAddr: 0x14150, symSize: 0x34 }
  - { offset: 0xC088D, size: 0x8, addend: 0x0, symName: __ZNSt3__120__shared_ptr_emplaceIN8nlohmann16json_abi_v3_11_26detail21output_vector_adapterIhNS_9allocatorIhEEEENS5_IS7_EEED1Ev, symObjAddr: 0xEBB4, symBinAddr: 0x1492C, symSize: 0x10 }
  - { offset: 0xC08AF, size: 0x8, addend: 0x0, symName: __ZNSt3__120__shared_ptr_emplaceIN8nlohmann16json_abi_v3_11_26detail21output_vector_adapterIhNS_9allocatorIhEEEENS5_IS7_EEED1Ev, symObjAddr: 0xEBB4, symBinAddr: 0x1492C, symSize: 0x10 }
  - { offset: 0xC08E5, size: 0x8, addend: 0x0, symName: __ZNSt3__120__shared_ptr_emplaceIN8nlohmann16json_abi_v3_11_26detail21output_vector_adapterIhNS_9allocatorIhEEEENS5_IS7_EEED0Ev, symObjAddr: 0xEBC4, symBinAddr: 0x1493C, symSize: 0x20 }
  - { offset: 0xC09D2, size: 0x8, addend: 0x0, symName: __ZNSt3__120__shared_ptr_emplaceIN8nlohmann16json_abi_v3_11_26detail21output_vector_adapterIhNS_9allocatorIhEEEENS5_IS7_EEE16__on_zero_sharedEv, symObjAddr: 0xEBE4, symBinAddr: 0x1495C, symSize: 0xC }
  - { offset: 0xC09FB, size: 0x8, addend: 0x0, symName: __ZNSt3__120__shared_ptr_emplaceIN8nlohmann16json_abi_v3_11_26detail21output_vector_adapterIhNS_9allocatorIhEEEENS5_IS7_EEE16__on_zero_sharedEv, symObjAddr: 0xEBE4, symBinAddr: 0x1495C, symSize: 0xC }
  - { offset: 0xC0A19, size: 0x8, addend: 0x0, symName: __ZNSt3__120__shared_ptr_emplaceIN8nlohmann16json_abi_v3_11_26detail21output_vector_adapterIhNS_9allocatorIhEEEENS5_IS7_EEE16__on_zero_sharedEv, symObjAddr: 0xEBE4, symBinAddr: 0x1495C, symSize: 0xC }
  - { offset: 0xC0A37, size: 0x8, addend: 0x0, symName: __ZNSt3__120__shared_ptr_emplaceIN8nlohmann16json_abi_v3_11_26detail21output_vector_adapterIhNS_9allocatorIhEEEENS5_IS7_EEE16__on_zero_sharedEv, symObjAddr: 0xEBE4, symBinAddr: 0x1495C, symSize: 0xC }
  - { offset: 0xC0ABA, size: 0x8, addend: 0x0, symName: __ZNSt3__120__shared_ptr_emplaceIN8nlohmann16json_abi_v3_11_26detail21output_vector_adapterIhNS_9allocatorIhEEEENS5_IS7_EEE21__on_zero_shared_weakEv, symObjAddr: 0xEBF0, symBinAddr: 0x14968, symSize: 0x4 }
  - { offset: 0xC0AEE, size: 0x8, addend: 0x0, symName: __ZNSt3__120__shared_ptr_emplaceIN8nlohmann16json_abi_v3_11_26detail21output_vector_adapterIhNS_9allocatorIhEEEENS5_IS7_EEE21__on_zero_shared_weakEv, symObjAddr: 0xEBF0, symBinAddr: 0x14968, symSize: 0x4 }
  - { offset: 0xC0B10, size: 0x8, addend: 0x0, symName: __ZNSt3__120__shared_ptr_emplaceIN8nlohmann16json_abi_v3_11_26detail21output_vector_adapterIhNS_9allocatorIhEEEENS5_IS7_EEE21__on_zero_shared_weakEv, symObjAddr: 0xEBF0, symBinAddr: 0x14968, symSize: 0x4 }
  - { offset: 0xC0B32, size: 0x8, addend: 0x0, symName: __ZNSt3__120__shared_ptr_emplaceIN8nlohmann16json_abi_v3_11_26detail21output_vector_adapterIhNS_9allocatorIhEEEENS5_IS7_EEE21__on_zero_shared_weakEv, symObjAddr: 0xEBF0, symBinAddr: 0x14968, symSize: 0x4 }
  - { offset: 0xC0B5E, size: 0x8, addend: 0x0, symName: __ZNSt3__120__shared_ptr_emplaceIN8nlohmann16json_abi_v3_11_26detail21output_vector_adapterIhNS_9allocatorIhEEEENS5_IS7_EEE21__on_zero_shared_weakEv, symObjAddr: 0xEBF0, symBinAddr: 0x14968, symSize: 0x4 }
  - { offset: 0xC0B85, size: 0x8, addend: 0x0, symName: __ZNSt3__120__shared_ptr_emplaceIN8nlohmann16json_abi_v3_11_26detail21output_vector_adapterIhNS_9allocatorIhEEEENS5_IS7_EEE21__on_zero_shared_weakEv, symObjAddr: 0xEBF0, symBinAddr: 0x14968, symSize: 0x4 }
  - { offset: 0xC0E7A, size: 0x8, addend: 0x0, symName: __ZN8nlohmann16json_abi_v3_11_26detail21output_vector_adapterIhNSt3__19allocatorIhEEE15write_characterEh, symObjAddr: 0xEBF4, symBinAddr: 0x1496C, symSize: 0x1C4 }
  - { offset: 0xC125F, size: 0x8, addend: 0x0, symName: __ZN8nlohmann16json_abi_v3_11_26detail21output_vector_adapterIhNSt3__19allocatorIhEEE16write_charactersEPKhm, symObjAddr: 0xEDB8, symBinAddr: 0x14B30, symSize: 0x18 }
  - { offset: 0xC12D4, size: 0x8, addend: 0x0, symName: __ZN8nlohmann16json_abi_v3_11_26detail21output_vector_adapterIhNSt3__19allocatorIhEEE16write_charactersEPKhm, symObjAddr: 0xEDB8, symBinAddr: 0x14B30, symSize: 0x18 }
  - { offset: 0xC1AF2, size: 0x8, addend: 0x0, symName: __ZN8nlohmann16json_abi_v3_11_26detail6concatINSt3__112basic_stringIcNS3_11char_traitsIcEENS3_9allocatorIcEEEEJRA22_KcPSA_EEET_DpOT0_, symObjAddr: 0xF0A8, symBinAddr: 0x14B50, symSize: 0x84 }
  - { offset: 0xC1B15, size: 0x8, addend: 0x0, symName: __ZN8nlohmann16json_abi_v3_11_26detail21output_vector_adapterIhNSt3__19allocatorIhEEED1Ev, symObjAddr: 0xEDD0, symBinAddr: 0x14B48, symSize: 0x4 }
  - { offset: 0xC1B40, size: 0x8, addend: 0x0, symName: __ZN8nlohmann16json_abi_v3_11_26detail21output_vector_adapterIhNSt3__19allocatorIhEEED0Ev, symObjAddr: 0xEDD4, symBinAddr: 0x14B4C, symSize: 0x4 }
  - { offset: 0xC268B, size: 0x8, addend: 0x0, symName: __ZNSt3__16__treeINS_12__value_typeINS_12basic_stringIcNS_11char_traitsIcEENS_9allocatorIcEEEEN8nlohmann16json_abi_v3_11_210basic_jsonINS_3mapENS_6vectorES7_bxydS5_NS9_14adl_serializerENSC_IhNS5_IhEEEEEEEENS_19__map_value_compareIS7_SH_NS_4lessIvEELb1EEENS5_ISH_EEE30__emplace_hint_unique_key_argsIS7_JRKNS_4pairIKS7_SG_EEEEENSP_INS_15__tree_iteratorISH_PNS_11__tree_nodeISH_PvEElEEbEENS_21__tree_const_iteratorISH_SY_lEERKT_DpOT0_, symObjAddr: 0xF5FC, symBinAddr: 0x150A4, symSize: 0x128 }
  - { offset: 0xC2BDD, size: 0x8, addend: 0x0, symName: __ZNSt3__16vectorIN8nlohmann16json_abi_v3_11_210basic_jsonINS_3mapES0_NS_12basic_stringIcNS_11char_traitsIcEENS_9allocatorIcEEEEbxydS8_NS2_14adl_serializerENS0_IhNS8_IhEEEEEENS8_ISE_EEE16__init_with_sizeB8ne180100IPSE_SI_EEvT_T0_m, symObjAddr: 0xFB1C, symBinAddr: 0x155C4, symSize: 0x100 }
  - { offset: 0xC3224, size: 0x8, addend: 0x0, symName: __ZNSt3__16__treeINS_12__value_typeINS_12basic_stringIcNS_11char_traitsIcEENS_9allocatorIcEEEEN8nlohmann16json_abi_v3_11_210basic_jsonINS_3mapENS_6vectorES7_bxydS5_NS9_14adl_serializerENSC_IhNS5_IhEEEEEEEENS_19__map_value_compareIS7_SH_NS_4lessIvEELb1EEENS5_ISH_EEE12__find_equalIS7_EERPNS_16__tree_node_baseIPvEENS_21__tree_const_iteratorISH_PNS_11__tree_nodeISH_SQ_EElEERPNS_15__tree_end_nodeISS_EEST_RKT_, symObjAddr: 0xF724, symBinAddr: 0x151CC, symSize: 0x3F8 }
  - { offset: 0xC3FF2, size: 0x8, addend: 0x0, symName: __ZNSt3__128__exception_guard_exceptionsINS_6vectorIN8nlohmann16json_abi_v3_11_210basic_jsonINS_3mapES1_NS_12basic_stringIcNS_11char_traitsIcEENS_9allocatorIcEEEEbxydS9_NS3_14adl_serializerENS1_IhNS9_IhEEEEEENS9_ISF_EEE16__destroy_vectorEED1B8ne180100Ev, symObjAddr: 0xFC1C, symBinAddr: 0x156C4, symSize: 0x80 }
  - { offset: 0xC4191, size: 0x8, addend: 0x0, symName: __ZNSt3__128__exception_guard_exceptionsINS_29_AllocatorDestroyRangeReverseINS_9allocatorIN8nlohmann16json_abi_v3_11_210basic_jsonINS_3mapENS_6vectorENS_12basic_stringIcNS_11char_traitsIcEENS2_IcEEEEbxydS2_NS4_14adl_serializerENS7_IhNS2_IhEEEEEEEEPSG_EEED1B8ne180100Ev, symObjAddr: 0xFC9C, symBinAddr: 0x15744, symSize: 0x58 }
  - { offset: 0xC473E, size: 0x8, addend: 0x0, symName: __ZNK8nlohmann16json_abi_v3_11_210basic_jsonINSt3__13mapENS2_6vectorENS2_12basic_stringIcNS2_11char_traitsIcEENS2_9allocatorIcEEEEbxydS8_NS0_14adl_serializerENS4_IhNS8_IhEEEEEixEm, symObjAddr: 0x10318, symBinAddr: 0x15DC0, symSize: 0xE0 }
  - { offset: 0xC4931, size: 0x8, addend: 0x0, symName: __ZNSt3__16__treeINS_12__value_typeINS_12basic_stringIcNS_11char_traitsIcEENS_9allocatorIcEEEEN8nlohmann16json_abi_v3_11_210basic_jsonINS_3mapENS_6vectorES7_bxydS5_NS9_14adl_serializerENSC_IhNS5_IhEEEEEEEENS_19__map_value_compareIS7_SH_NS_4lessIvEELb1EEENS5_ISH_EEE25__emplace_unique_key_argsIS7_JS7_SG_EEENS_4pairINS_15__tree_iteratorISH_PNS_11__tree_nodeISH_PvEElEEbEERKT_DpOT0_, symObjAddr: 0x1047C, symBinAddr: 0x15F24, symSize: 0x194 }
  - { offset: 0xC4EF3, size: 0x8, addend: 0x0, symName: __ZNSt3__16vectorIN8nlohmann16json_abi_v3_11_210basic_jsonINS_3mapES0_NS_12basic_stringIcNS_11char_traitsIcEENS_9allocatorIcEEEEbxydS8_NS2_14adl_serializerENS0_IhNS8_IhEEEEEENS8_ISE_EEE16__init_with_sizeB8ne180100IPKNS2_6detail8json_refISE_EESM_EEvT_T0_m, symObjAddr: 0x10610, symBinAddr: 0x160B8, symSize: 0x128 }
  - { offset: 0xC53F6, size: 0x8, addend: 0x0, symName: __ZN8nlohmann16json_abi_v3_11_26detail10type_error6createIDnLi0EEES2_iRKNSt3__112basic_stringIcNS4_11char_traitsIcEENS4_9allocatorIcEEEET_, symObjAddr: 0x1014C, symBinAddr: 0x15BF4, symSize: 0x1CC }
  - { offset: 0xC6884, size: 0x8, addend: 0x0, symName: __ZN8nlohmann16json_abi_v3_11_26detail5lexerINS0_10basic_jsonINSt3__13mapENS4_6vectorENS4_12basic_stringIcNS4_11char_traitsIcEENS4_9allocatorIcEEEEbxydSA_NS0_14adl_serializerENS6_IhNSA_IhEEEEEENS1_22iterator_input_adapterINS4_11__wrap_iterIPKcEEEEE4scanEv, symObjAddr: 0x10E9C, symBinAddr: 0x16944, symSize: 0x28C }
  - { offset: 0xC6B96, size: 0x8, addend: 0x0, symName: __ZN8nlohmann16json_abi_v3_11_26detail5lexerINS0_10basic_jsonINSt3__13mapENS4_6vectorENS4_12basic_stringIcNS4_11char_traitsIcEENS4_9allocatorIcEEEEbxydSA_NS0_14adl_serializerENS6_IhNSA_IhEEEEEENS1_22iterator_input_adapterINS4_11__wrap_iterIPKcEEEEED1Ev, symObjAddr: 0x10E50, symBinAddr: 0x168F8, symSize: 0x4C }
  - { offset: 0xC6EB5, size: 0x8, addend: 0x0, symName: __ZN8nlohmann16json_abi_v3_11_26detail5lexerINS0_10basic_jsonINSt3__13mapENS4_6vectorENS4_12basic_stringIcNS4_11char_traitsIcEENS4_9allocatorIcEEEEbxydSA_NS0_14adl_serializerENS6_IhNSA_IhEEEEEENS1_22iterator_input_adapterINS4_11__wrap_iterIPKcEEEEE3getEv, symObjAddr: 0x12818, symBinAddr: 0x182C0, symSize: 0x258 }
  - { offset: 0xC7366, size: 0x8, addend: 0x0, symName: __ZN8nlohmann16json_abi_v3_11_26detail5lexerINS0_10basic_jsonINSt3__13mapENS4_6vectorENS4_12basic_stringIcNS4_11char_traitsIcEENS4_9allocatorIcEEEEbxydSA_NS0_14adl_serializerENS6_IhNSA_IhEEEEEENS1_22iterator_input_adapterINS4_11__wrap_iterIPKcEEEEE15skip_whitespaceEv, symObjAddr: 0x11128, symBinAddr: 0x16BD0, symSize: 0x274 }
  - { offset: 0xC785F, size: 0x8, addend: 0x0, symName: __ZN8nlohmann16json_abi_v3_11_26detail5lexerINS0_10basic_jsonINSt3__13mapENS4_6vectorENS4_12basic_stringIcNS4_11char_traitsIcEENS4_9allocatorIcEEEEbxydSA_NS0_14adl_serializerENS6_IhNSA_IhEEEEEENS1_22iterator_input_adapterINS4_11__wrap_iterIPKcEEEEE12scan_commentEv, symObjAddr: 0x1139C, symBinAddr: 0x16E44, symSize: 0x120 }
  - { offset: 0xC7871, size: 0x8, addend: 0x0, symName: __ZN8nlohmann16json_abi_v3_11_26detail5lexerINS0_10basic_jsonINSt3__13mapENS4_6vectorENS4_12basic_stringIcNS4_11char_traitsIcEENS4_9allocatorIcEEEEbxydSA_NS0_14adl_serializerENS6_IhNSA_IhEEEEEENS1_22iterator_input_adapterINS4_11__wrap_iterIPKcEEEEE12scan_commentEv, symObjAddr: 0x1139C, symBinAddr: 0x16E44, symSize: 0x120 }
  - { offset: 0xC7971, size: 0x8, addend: 0x0, symName: __ZN8nlohmann16json_abi_v3_11_26detail5lexerINS0_10basic_jsonINSt3__13mapENS4_6vectorENS4_12basic_stringIcNS4_11char_traitsIcEENS4_9allocatorIcEEEEbxydSA_NS0_14adl_serializerENS6_IhNSA_IhEEEEEENS1_22iterator_input_adapterINS4_11__wrap_iterIPKcEEEEE11scan_numberEv, symObjAddr: 0x12214, symBinAddr: 0x17CBC, symSize: 0x604 }
  - { offset: 0xC878E, size: 0x8, addend: 0x0, symName: __ZN8nlohmann16json_abi_v3_11_26detail5lexerINS0_10basic_jsonINSt3__13mapENS4_6vectorENS4_12basic_stringIcNS4_11char_traitsIcEENS4_9allocatorIcEEEEbxydSA_NS0_14adl_serializerENS6_IhNSA_IhEEEEEENS1_22iterator_input_adapterINS4_11__wrap_iterIPKcEEEEE11scan_stringEv, symObjAddr: 0x114BC, symBinAddr: 0x16F64, symSize: 0xD58 }
  - { offset: 0xCA20C, size: 0x8, addend: 0x0, symName: __ZN8nlohmann16json_abi_v3_11_26detail5lexerINS0_10basic_jsonINSt3__13mapENS4_6vectorENS4_12basic_stringIcNS4_11char_traitsIcEENS4_9allocatorIcEEEEbxydSA_NS0_14adl_serializerENS6_IhNSA_IhEEEEEENS1_22iterator_input_adapterINS4_11__wrap_iterIPKcEEEEE13get_codepointEv, symObjAddr: 0x12A84, symBinAddr: 0x18518, symSize: 0x1AC }
  - { offset: 0xCA2E8, size: 0x8, addend: 0x0, symName: __ZN8nlohmann16json_abi_v3_11_26detail5lexerINS0_10basic_jsonINSt3__13mapENS4_6vectorENS4_12basic_stringIcNS4_11char_traitsIcEENS4_9allocatorIcEEEEbxydSA_NS0_14adl_serializerENS6_IhNSA_IhEEEEEENS1_22iterator_input_adapterINS4_11__wrap_iterIPKcEEEEE13get_codepointEv, symObjAddr: 0x12A84, symBinAddr: 0x18518, symSize: 0x1AC }
  - { offset: 0xCA5FB, size: 0x8, addend: 0x0, symName: __ZN8nlohmann16json_abi_v3_11_26detail6parserINS0_10basic_jsonINSt3__13mapENS4_6vectorENS4_12basic_stringIcNS4_11char_traitsIcEENS4_9allocatorIcEEEEbxydSA_NS0_14adl_serializerENS6_IhNSA_IhEEEEEENS1_22iterator_input_adapterINS4_11__wrap_iterIPKcEEEEE18sax_parse_internalINS1_17json_sax_acceptorISG_EEEEbPT_, symObjAddr: 0x12E5C, symBinAddr: 0x188F0, symSize: 0x8E4 }
  - { offset: 0xCBD70, size: 0x8, addend: 0x0, symName: __ZN8nlohmann16json_abi_v3_11_26detail6parserINS0_10basic_jsonINSt3__13mapENS4_6vectorENS4_12basic_stringIcNS4_11char_traitsIcEENS4_9allocatorIcEEEEbxydSA_NS0_14adl_serializerENS6_IhNSA_IhEEEEEENS1_22iterator_input_adapterINS4_11__wrap_iterIPKcEEEEE17exception_messageENS1_10lexer_baseISG_E10token_typeERKSC_, symObjAddr: 0x13A6C, symBinAddr: 0x19500, symSize: 0x3CC }
  - { offset: 0xCD07E, size: 0x8, addend: 0x0, symName: __ZN8nlohmann16json_abi_v3_11_26detail11parse_error6createIDnLi0EEES2_iRKNS1_10position_tERKNSt3__112basic_stringIcNS7_11char_traitsIcEENS7_9allocatorIcEEEET_, symObjAddr: 0x13824, symBinAddr: 0x192B8, symSize: 0x248 }
  - { offset: 0xCE2E7, size: 0x8, addend: 0x0, symName: __ZNSt3__16vectorIbNS_9allocatorIbEEE7reserveEm, symObjAddr: 0x140EC, symBinAddr: 0x19B80, symSize: 0x100 }
  - { offset: 0xCE6D1, size: 0x8, addend: 0x0, symName: __ZNK8nlohmann16json_abi_v3_11_26detail5lexerINS0_10basic_jsonINSt3__13mapENS4_6vectorENS4_12basic_stringIcNS4_11char_traitsIcEENS4_9allocatorIcEEEEbxydSA_NS0_14adl_serializerENS6_IhNSA_IhEEEEEENS1_22iterator_input_adapterINS4_11__wrap_iterIPKcEEEEE16get_token_stringEv, symObjAddr: 0x13740, symBinAddr: 0x191D4, symSize: 0xE4 }
  - { offset: 0xCE95A, size: 0x8, addend: 0x0, symName: __ZN8nlohmann16json_abi_v3_11_26detail12out_of_range6createIDnLi0EEES2_iRKNSt3__112basic_stringIcNS4_11char_traitsIcEENS4_9allocatorIcEEEET_, symObjAddr: 0x13E68, symBinAddr: 0x198FC, symSize: 0x1D0 }
  - { offset: 0xCF785, size: 0x8, addend: 0x0, symName: __ZN8nlohmann16json_abi_v3_11_26detail6concatINSt3__112basic_stringIcNS3_11char_traitsIcEENS3_9allocatorIcEEEEJS9_RA12_KcS9_RA3_SA_S9_RKS9_EEET_DpOT0_, symObjAddr: 0x14200, symBinAddr: 0x19C80, symSize: 0x190 }
  - { offset: 0xCF806, size: 0x8, addend: 0x0, symName: __ZN8nlohmann16json_abi_v3_11_26detail11parse_error15position_stringERKNS1_10position_tE, symObjAddr: 0x14390, symBinAddr: 0x19E10, symSize: 0xE8 }
  - { offset: 0xCFCF7, size: 0x8, addend: 0x0, symName: __ZN8nlohmann16json_abi_v3_11_26detail11parse_errorD1Ev, symObjAddr: 0x13E38, symBinAddr: 0x198CC, symSize: 0x30 }
  - { offset: 0xCFF7C, size: 0x8, addend: 0x0, symName: __ZN8nlohmann16json_abi_v3_11_26detail11parse_errorD0Ev, symObjAddr: 0x14584, symBinAddr: 0x1A004, symSize: 0x34 }
  - { offset: 0xD1F17, size: 0x8, addend: 0x0, symName: __ZN7facesdk6Logger9setStatusEb, symObjAddr: 0x0, symBinAddr: 0x1A4E8, symSize: 0x8 }
  - { offset: 0xD9EB6, size: 0x8, addend: 0x0, symName: __ZN7facesdk6Logger9setStatusEb, symObjAddr: 0x0, symBinAddr: 0x1A4E8, symSize: 0x8 }
  - { offset: 0xDC3A4, size: 0x8, addend: 0x0, symName: __ZNSt3__1L19piecewise_constructE, symObjAddr: 0x1816, symBinAddr: 0xDC36AD, symSize: 0x0 }
  - { offset: 0xE1E5A, size: 0x8, addend: 0x0, symName: __ZNSt3__125__throw_bad_function_callB8ne180100Ev, symObjAddr: 0x11E4, symBinAddr: 0x1B208, symSize: 0x34 }
  - { offset: 0xE4509, size: 0x8, addend: 0x0, symName: __ZN7facesdk12MessageQueueC1Em, symObjAddr: 0xA4, symBinAddr: 0x1A4F0, symSize: 0xA4 }
  - { offset: 0xE4881, size: 0x8, addend: 0x0, symName: __ZN7facesdk12MessageQueue4pushENS_11eFL_MessageE, symObjAddr: 0x148, symBinAddr: 0x1A594, symSize: 0xCC }
  - { offset: 0xE4BB2, size: 0x8, addend: 0x0, symName: __ZNSt3__15dequeIN7facesdk11eFL_MessageENS_9allocatorIS2_EEE19__add_back_capacityEv, symObjAddr: 0x8DC, symBinAddr: 0x1A928, symSize: 0x5BC }
  - { offset: 0xE5E41, size: 0x8, addend: 0x0, symName: __ZN7facesdk12MessageQueue5clearEv, symObjAddr: 0x228, symBinAddr: 0x1A660, symSize: 0x74 }
  - { offset: 0xE6374, size: 0x8, addend: 0x0, symName: __ZNK7facesdk12MessageQueue17prevailingMessageEv, symObjAddr: 0x4D0, symBinAddr: 0x1A6D4, symSize: 0x17C }
  - { offset: 0xE6C15, size: 0x8, addend: 0x0, symName: __ZNSt3__112__hash_tableINS_17__hash_value_typeIN7facesdk11eFL_MessageEmEENS_22__unordered_map_hasherIS3_S4_NS_4hashIS3_EENS_8equal_toIS3_EELb1EEENS_21__unordered_map_equalIS3_S4_S9_S7_Lb1EEENS_9allocatorIS4_EEE25__emplace_unique_key_argsIS3_JRKNS_21piecewise_construct_tENS_5tupleIJRKS3_EEENSK_IJEEEEEENS_4pairINS_15__hash_iteratorIPNS_11__hash_nodeIS4_PvEEEEbEERKT_DpOT0_, symObjAddr: 0x1230, symBinAddr: 0x1B254, symSize: 0x328 }
  - { offset: 0xE7369, size: 0x8, addend: 0x0, symName: __ZNSt3__113unordered_mapIN7facesdk11eFL_MessageEmNS_4hashIS2_EENS_8equal_toIS2_EENS_9allocatorINS_4pairIKS2_mEEEEED1B8ne180100Ev, symObjAddr: 0x740, symBinAddr: 0x1A850, symSize: 0x48 }
  - { offset: 0xE763D, size: 0x8, addend: 0x0, symName: __ZNK7facesdk12MessageQueue15messageFractionENS_11eFL_MessageE, symObjAddr: 0x788, symBinAddr: 0x1A898, symSize: 0x90 }
  - { offset: 0xE768F, size: 0x8, addend: 0x0, symName: __ZNK7facesdk12MessageQueue15messageFractionENS_11eFL_MessageE, symObjAddr: 0x788, symBinAddr: 0x1A898, symSize: 0x90 }
  - { offset: 0xE76AC, size: 0x8, addend: 0x0, symName: __ZNK7facesdk12MessageQueue15messageFractionENS_11eFL_MessageE, symObjAddr: 0x788, symBinAddr: 0x1A898, symSize: 0x90 }
  - { offset: 0xE76D3, size: 0x8, addend: 0x0, symName: __ZNK7facesdk12MessageQueue15messageFractionENS_11eFL_MessageE, symObjAddr: 0x788, symBinAddr: 0x1A898, symSize: 0x90 }
  - { offset: 0xE7E6F, size: 0x8, addend: 0x0, symName: __ZNSt3__114__split_bufferIPN7facesdk11eFL_MessageENS_9allocatorIS3_EEE9push_backEOS3_, symObjAddr: 0xE98, symBinAddr: 0x1AEE4, symSize: 0x18C }
  - { offset: 0xE830B, size: 0x8, addend: 0x0, symName: __ZNSt3__114__split_bufferIPN7facesdk11eFL_MessageENS_9allocatorIS3_EEE10push_frontEOS3_, symObjAddr: 0x1024, symBinAddr: 0x1B070, symSize: 0x198 }
  - { offset: 0xE8316, size: 0x8, addend: 0x0, symName: __ZNSt3__114__split_bufferIPN7facesdk11eFL_MessageENS_9allocatorIS3_EEE10push_frontEOS3_, symObjAddr: 0x1024, symBinAddr: 0x1B070, symSize: 0x198 }
  - { offset: 0xE87FB, size: 0x8, addend: 0x0, symName: __ZNSt3__117bad_function_callD1Ev, symObjAddr: 0x1218, symBinAddr: 0x1B23C, symSize: 0x4 }
  - { offset: 0xE881D, size: 0x8, addend: 0x0, symName: __ZNSt3__117bad_function_callD1Ev, symObjAddr: 0x1218, symBinAddr: 0x1B23C, symSize: 0x4 }
  - { offset: 0xE8851, size: 0x8, addend: 0x0, symName: __ZNSt3__117bad_function_callD0Ev, symObjAddr: 0x121C, symBinAddr: 0x1B240, symSize: 0x14 }
  - { offset: 0xE8DDB, size: 0x8, addend: 0x0, symName: __ZNSt3__112__hash_tableINS_17__hash_value_typeIN7facesdk11eFL_MessageEmEENS_22__unordered_map_hasherIS3_S4_NS_4hashIS3_EENS_8equal_toIS3_EELb1EEENS_21__unordered_map_equalIS3_S4_S9_S7_Lb1EEENS_9allocatorIS4_EEE11__do_rehashILb1EEEvm, symObjAddr: 0x1558, symBinAddr: 0x1B57C, symSize: 0x1AC }
  - { offset: 0xEB17A, size: 0x8, addend: 0x0, symName: '+[RGLLivenessCore process:inputData:inputJSON:outputData:outputJSON:]', symObjAddr: 0x0, symBinAddr: 0x1B728, symSize: 0xF4 }
  - { offset: 0xEBE0D, size: 0x8, addend: 0x0, symName: '+[RGLLivenessCore process:inputData:inputJSON:outputData:outputJSON:]', symObjAddr: 0x0, symBinAddr: 0x1B728, symSize: 0xF4 }
  - { offset: 0xEC032, size: 0x8, addend: 0x0, symName: '+[RGLLivenessCore process:inputBufferParams:inputJSON:outputData:outputJSON:]', symObjAddr: 0xF4, symBinAddr: 0x1B81C, symSize: 0x354 }
  - { offset: 0xEC304, size: 0x8, addend: 0x0, symName: '+[RGLLivenessCore addPackage:inputBufferParams:inputJSON:outputData:outputJSON:]', symObjAddr: 0x448, symBinAddr: 0x1BB70, symSize: 0x214 }
  - { offset: 0xEC436, size: 0x8, addend: 0x0, symName: '+[RGLLivenessCore process:]', symObjAddr: 0x65C, symBinAddr: 0x1BD84, symSize: 0x2C8 }
  - { offset: 0xF96F6, size: 0x8, addend: 0x0, symName: __ZN7facesdk8ResourceC1ERKNSt3__112basic_stringIcNS1_11char_traitsIcEENS1_9allocatorIcEEEE, symObjAddr: 0x6C, symBinAddr: 0x1C04C, symSize: 0x6C }
  - { offset: 0xF9A0E, size: 0x8, addend: 0x0, symName: __ZNK7facesdk8Resource7getFileERKNSt3__112basic_stringIcNS1_11char_traitsIcEENS1_9allocatorIcEEEE, symObjAddr: 0x190, symBinAddr: 0x1C0B8, symSize: 0x108 }
  - { offset: 0xFC14A, size: 0x8, addend: 0x0, symName: __MergedGlobals, symObjAddr: 0x65AF20, symBinAddr: 0xEB7450, symSize: 0x0 }
  - { offset: 0x10817A, size: 0x8, addend: 0x0, symName: __ZN5Eigen8internal26call_dense_assignment_loopINS_6MatrixIfLin1ELin1ELi0ELin1ELin1EEENS_13CwiseBinaryOpINS0_13scalar_sum_opIffEEKNS_12ArrayWrapperIKNS_5BlockIKNS_3MapIKNS2_IfLin1ELin1ELi1ELin1ELin1EEELi0ENS_6StrideILi0ELi0EEEEELin1ELin1ELb0EEEEEKNS4_INS0_17scalar_product_opIffEEKNS4_ISL_SJ_KNS_14CwiseNullaryOpINS0_18scalar_constant_opIfEEKNS_5ArrayIfLin1ELin1ELi1ELin1ELin1EEEEEEESJ_EEEENS0_9assign_opIffEEEEvRT_RKT0_RKT1_, symObjAddr: 0x1A740, symBinAddr: 0x322CC, symSize: 0x338 }
  - { offset: 0x108D37, size: 0x8, addend: 0x0, symName: __ZN5Eigen8internal26call_dense_assignment_loopINS_6MatrixIfLin1ELin1ELi0ELin1ELin1EEENS_13CwiseBinaryOpINS0_20scalar_difference_opIffEEKNS_12ArrayWrapperIS3_EEKNS4_INS0_18scalar_quotient_opIffEES9_KNS_14CwiseNullaryOpINS0_18scalar_constant_opIfEEKNS_5ArrayIfLin1ELin1ELi0ELin1ELin1EEEEEEEEENS0_9assign_opIffEEEEvRT_RKT0_RKT1_, symObjAddr: 0x1AB08, symBinAddr: 0x32604, symSize: 0x1CC }
  - { offset: 0x10970C, size: 0x8, addend: 0x0, symName: __ZN5Eigen8internal26call_dense_assignment_loopINS_6MatrixIfLin1ELin1ELi0ELin1ELin1EEENS_13CwiseBinaryOpINS0_13scalar_sum_opIffEEKNS_12ArrayWrapperIS3_EES9_EENS0_9assign_opIffEEEEvRT_RKT0_RKT1_, symObjAddr: 0x1ACD4, symBinAddr: 0x327D0, symSize: 0x19C }
  - { offset: 0x10AEC2, size: 0x8, addend: 0x0, symName: __MergedGlobals, symObjAddr: 0x65AF20, symBinAddr: 0xEB7450, symSize: 0x0 }
  - { offset: 0x10AEDE, size: 0x8, addend: 0x0, symName: __MergedGlobals, symObjAddr: 0x65AF20, symBinAddr: 0xEB7450, symSize: 0x0 }
  - { offset: 0x1674E8, size: 0x8, addend: 0x0, symName: __ZNSt3__1L19piecewise_constructE, symObjAddr: 0x1EDB6, symBinAddr: 0xDC3AFE, symSize: 0x0 }
  - { offset: 0x18218B, size: 0x8, addend: 0x0, symName: __ZNSt3__135__uninitialized_allocator_copy_implB8ne180100INS_9allocatorINS_6vectorIiNS1_IiEEEEEEPKS4_S7_PS4_EET2_RT_T0_T1_S9_, symObjAddr: 0x141D4, symBinAddr: 0x2BE30, symSize: 0x100 }
  - { offset: 0x185472, size: 0x8, addend: 0x0, symName: __ZNSt3__113__tree_removeB8ne180100IPNS_16__tree_node_baseIPvEEEEvT_S5_, symObjAddr: 0xE210, symBinAddr: 0x26A4C, symSize: 0x3C4 }
  - { offset: 0x1876AF, size: 0x8, addend: 0x0, symName: __ZNSt3__135__uninitialized_allocator_copy_implB8ne180100INS_9allocatorINS_6vectorIfNS1_IfEEEEEEPKS4_S7_PS4_EET2_RT_T0_T1_S9_, symObjAddr: 0x18FC8, symBinAddr: 0x30BE8, symSize: 0x100 }
  - { offset: 0x187D62, size: 0x8, addend: 0x0, symName: __ZNSt3__135__uninitialized_allocator_copy_implB8ne180100INS_9allocatorINS_6vectorIiNS1_IiEEEEEEPS4_S6_S6_EET2_RT_T0_T1_S7_, symObjAddr: 0x16CC4, symBinAddr: 0x2E90C, symSize: 0x100 }
  - { offset: 0x18A3E8, size: 0x8, addend: 0x0, symName: __ZNSt3__135__uninitialized_allocator_copy_implB8ne180100INS_9allocatorINS_6vectorIhNS1_IhEEEEEEPKS4_S7_PS4_EET2_RT_T0_T1_S9_, symObjAddr: 0x1CC68, symBinAddr: 0x34294, symSize: 0xFC }
  - { offset: 0x19080A, size: 0x8, addend: 0x0, symName: __MergedGlobals, symObjAddr: 0x65AF20, symBinAddr: 0xEB7450, symSize: 0x0 }
  - { offset: 0x190886, size: 0x8, addend: 0x0, symName: __MergedGlobals, symObjAddr: 0x65AF20, symBinAddr: 0xEB7450, symSize: 0x0 }
  - { offset: 0x1908FD, size: 0x8, addend: 0x0, symName: __MergedGlobals, symObjAddr: 0x65AF20, symBinAddr: 0xEB7450, symSize: 0x0 }
  - { offset: 0x191252, size: 0x8, addend: 0x0, symName: __MergedGlobals, symObjAddr: 0x65AF20, symBinAddr: 0xEB7450, symSize: 0x0 }
  - { offset: 0x1912D2, size: 0x8, addend: 0x0, symName: __MergedGlobals, symObjAddr: 0x65AF20, symBinAddr: 0xEB7450, symSize: 0x0 }
  - { offset: 0x1912EE, size: 0x8, addend: 0x0, symName: __MergedGlobals, symObjAddr: 0x65AF20, symBinAddr: 0xEB7450, symSize: 0x0 }
  - { offset: 0x19130A, size: 0x8, addend: 0x0, symName: __ZN7facesdkL6loggerE, symObjAddr: 0x65AF10, symBinAddr: 0xEB7440, symSize: 0x0 }
  - { offset: 0x19179E, size: 0x8, addend: 0x0, symName: __ZN7facesdk7processEiPvPcPS0_PS1_, symObjAddr: 0x168, symBinAddr: 0x1C328, symSize: 0x150 }
  - { offset: 0x191A17, size: 0x8, addend: 0x0, symName: __ZN7facesdk7cmdInitEPKvPKcPPc, symObjAddr: 0x310, symBinAddr: 0x1C478, symSize: 0x53C }
  - { offset: 0x192CF7, size: 0x8, addend: 0x0, symName: __ZN7facesdk18cmdStartNewSessionEPKcPPc, symObjAddr: 0x864, symBinAddr: 0x1C9B4, symSize: 0x4DC }
  - { offset: 0x193FBA, size: 0x8, addend: 0x0, symName: __ZN7facesdk10cmdProcessEPvPKcPPc, symObjAddr: 0xD40, symBinAddr: 0x1CE90, symSize: 0x390 }
  - { offset: 0x194C3A, size: 0x8, addend: 0x0, symName: __ZN7facesdk12freeLivenessEv, symObjAddr: 0x231C, symBinAddr: 0x1E40C, symSize: 0x12C }
  - { offset: 0x1953F1, size: 0x8, addend: 0x0, symName: __ZN7facesdk19cmdAddDataToPackageEPKvPKc, symObjAddr: 0x10D0, symBinAddr: 0x1D220, symSize: 0x190 }
  - { offset: 0x195840, size: 0x8, addend: 0x0, symName: __ZN7facesdk18cmdFinalizePackageEPPvPPc, symObjAddr: 0x1260, symBinAddr: 0x1D3B0, symSize: 0x874 }
  - { offset: 0x199600, size: 0x8, addend: 0x0, symName: __ZN7facesdk11setUpLoggerEPKc, symObjAddr: 0x1B08, symBinAddr: 0x1DC24, symSize: 0x150 }
  - { offset: 0x1998D3, size: 0x8, addend: 0x0, symName: __ZN7facesdk12initLivenessEPKhRKN8nlohmann16json_abi_v3_11_210basic_jsonINSt3__13mapENS5_6vectorENS5_12basic_stringIcNS5_11char_traitsIcEENS5_9allocatorIcEEEEbxydSB_NS3_14adl_serializerENS7_IhNSB_IhEEEEEE, symObjAddr: 0x1F1C, symBinAddr: 0x1E00C, symSize: 0xE8 }
  - { offset: 0x199F5F, size: 0x8, addend: 0x0, symName: __ZN7facesdk15LivenessProcessERKN2cv3MatERKN8nlohmann16json_abi_v3_11_210basic_jsonINSt3__13mapENS7_6vectorENS7_12basic_stringIcNS7_11char_traitsIcEENS7_9allocatorIcEEEEbxydSD_NS5_14adl_serializerENS9_IhNSD_IhEEEEEE, symObjAddr: 0x28CC, symBinAddr: 0x1E538, symSize: 0x6E0 }
  - { offset: 0x19B97E, size: 0x8, addend: 0x0, symName: __ZN7facesdk12initResourceEPKhRKN8nlohmann16json_abi_v3_11_210basic_jsonINSt3__13mapENS5_6vectorENS5_12basic_stringIcNS5_11char_traitsIcEENS5_9allocatorIcEEEEbxydSB_NS3_14adl_serializerENS7_IhNSB_IhEEEEEE, symObjAddr: 0x35F8, symBinAddr: 0x1F260, symSize: 0x2BC }
  - { offset: 0x19CC79, size: 0x8, addend: 0x0, symName: __ZN7facesdk16initFaceDetectorEv, symObjAddr: 0x38B4, symBinAddr: 0x1F51C, symSize: 0x984 }
  - { offset: 0x1A219A, size: 0x8, addend: 0x0, symName: __ZN7facesdk21initOcclusionDetectorEv, symObjAddr: 0x4238, symBinAddr: 0x1FEA0, symSize: 0x450 }
  - { offset: 0x1A4B0A, size: 0x8, addend: 0x0, symName: __ZN7facesdk15createOrtRunnerERKNSt3__112basic_stringIcNS0_11char_traitsIcEENS0_9allocatorIcEEEERKN9inference21InferenceRunnerParamsE, symObjAddr: 0x3378, symBinAddr: 0x1EFE0, symSize: 0x280 }
  - { offset: 0x1AF238, size: 0x8, addend: 0x0, symName: __ZN8nlohmann16json_abi_v3_11_26detail9dtoa_impl6grisu2IdEEvPcRiS5_T_, symObjAddr: 0x13290, symBinAddr: 0x2B574, symSize: 0x1F0 }
  - { offset: 0x1AF8D5, size: 0x8, addend: 0x0, symName: __ZN8nlohmann16json_abi_v3_11_26detail9dtoa_impl16grisu2_digit_genEPcRiS4_NS2_5diyfpES5_S5_, symObjAddr: 0x13480, symBinAddr: 0x2B764, symSize: 0x2E0 }
  - { offset: 0x1B33BF, size: 0x8, addend: 0x0, symName: __ZN8nlohmann16json_abi_v3_11_26detail6concatINSt3__112basic_stringIcNS3_11char_traitsIcEENS3_9allocatorIcEEEEJRA24_KcS9_EEET_DpOT0_, symObjAddr: 0xD570, symBinAddr: 0x260F4, symSize: 0xA0 }
  - { offset: 0x1B3710, size: 0x8, addend: 0x0, symName: __ZN8nlohmann16json_abi_v3_11_26detail6concatINSt3__112basic_stringIcNS3_11char_traitsIcEENS3_9allocatorIcEEEEJRA23_KcS9_EEET_DpOT0_, symObjAddr: 0xE774, symBinAddr: 0x26FB0, symSize: 0xA0 }
  - { offset: 0x1B4840, size: 0x8, addend: 0x0, symName: __ZN8nlohmann16json_abi_v3_11_26detail8to_charsIdEEPcS3_PKcT_, symObjAddr: 0x13024, symBinAddr: 0x2B308, symSize: 0x26C }
  - { offset: 0x1B496C, size: 0x8, addend: 0x0, symName: __ZN8nlohmann16json_abi_v3_11_26detail6concatINSt3__112basic_stringIcNS3_11char_traitsIcEENS3_9allocatorIcEEEEJRA29_KcS9_RA5_SA_S9_EEET_DpOT0_, symObjAddr: 0x12E78, symBinAddr: 0x2B15C, symSize: 0x10C }
  - { offset: 0x1B4E70, size: 0x8, addend: 0x0, symName: __ZN8nlohmann16json_abi_v3_11_26detail6concatINSt3__112basic_stringIcNS3_11char_traitsIcEENS3_9allocatorIcEEEEJRA39_KcS9_EEET_DpOT0_, symObjAddr: 0x12F84, symBinAddr: 0x2B268, symSize: 0xA0 }
  - { offset: 0x1B55DC, size: 0x8, addend: 0x0, symName: __ZN8nlohmann16json_abi_v3_11_26detail6concatINSt3__112basic_stringIcNS3_11char_traitsIcEENS3_9allocatorIcEEEEJRA6_KcRKS9_RA12_SA_EEET_DpOT0_, symObjAddr: 0x13F00, symBinAddr: 0x2BC74, symSize: 0xC8 }
  - { offset: 0x1B843B, size: 0x8, addend: 0x0, symName: __ZN3Ort6GlobalIvE4api_E, symObjAddr: 0x229F0, symBinAddr: 0xEACDF8, symSize: 0x0 }
  - { offset: 0x1BC25B, size: 0x8, addend: 0x0, symName: __ZN3Ort12ThrowOnErrorEP9OrtStatus, symObjAddr: 0x19A4C, symBinAddr: 0x31600, symSize: 0x13C }
  - { offset: 0x1BF977, size: 0x8, addend: 0x0, symName: __ZN8nlohmann16json_abi_v3_11_26detail10serializerINS0_10basic_jsonINSt3__13mapENS4_6vectorENS4_12basic_stringIcNS4_11char_traitsIcEENS4_9allocatorIcEEEEbxydSA_NS0_14adl_serializerENS6_IhNSA_IhEEEEEEE12dump_integerIxLi0EEEvT_, symObjAddr: 0x12C2C, symBinAddr: 0x2AF10, symSize: 0x24C }
  - { offset: 0x1BF99C, size: 0x8, addend: 0x0, symName: __ZZN8nlohmann16json_abi_v3_11_26detail10serializerINS0_10basic_jsonINSt3__13mapENS4_6vectorENS4_12basic_stringIcNS4_11char_traitsIcEENS4_9allocatorIcEEEEbxydSA_NS0_14adl_serializerENS6_IhNSA_IhEEEEEEE12dump_integerIxLi0EEEvT_E12digits_to_99, symObjAddr: 0x1F26C, symBinAddr: 0xDC3F84, symSize: 0x0 }
  - { offset: 0x1C3506, size: 0x8, addend: 0x0, symName: __ZN5Eigen8internal21dense_assignment_loopINS0_31generic_dense_assignment_kernelINS0_9evaluatorINS_5BlockINS_6MatrixIfLin1ELin1ELi0ELin1ELin1EEELin1ELin1ELb0EEEEENS3_IS6_EENS0_9assign_opIffEELi0EEELi4ELi0EE3runERSC_, symObjAddr: 0x1AE70, symBinAddr: 0x3296C, symSize: 0x380 }
  - { offset: 0x1C35B5, size: 0x8, addend: 0x0, symName: __ZN5Eigen8internal21dense_assignment_loopINS0_31generic_dense_assignment_kernelINS0_9evaluatorINS_5BlockINS_6MatrixIfLin1ELin1ELi0ELin1ELin1EEELin1ELin1ELb0EEEEENS3_IS6_EENS0_9assign_opIffEELi0EEELi4ELi0EE3runERSC_, symObjAddr: 0x1AE70, symBinAddr: 0x3296C, symSize: 0x380 }
  - { offset: 0x1C47A3, size: 0x8, addend: 0x0, symName: __ZN9inference7convertIfEEvRKNSt3__16vectorIN2cv3MatENS1_9allocatorIS4_EEEERNS2_IT_NS5_ISA_EEEEb, symObjAddr: 0x16ED0, symBinAddr: 0x2EB18, symSize: 0x100 }
  - { offset: 0x1C4BF4, size: 0x8, addend: 0x0, symName: __ZN9inference7mat2HWCIfEEvRKN2cv3MatERNSt3__16vectorIT_NS5_9allocatorIS7_EEEE, symObjAddr: 0x17D78, symBinAddr: 0x2F9AC, symSize: 0x170 }
  - { offset: 0x1C5126, size: 0x8, addend: 0x0, symName: __ZN9inference7mat2CHWIfEEvRKN2cv3MatERNSt3__16vectorIT_NS5_9allocatorIS7_EEEE, symObjAddr: 0x17EE8, symBinAddr: 0x2FB1C, symSize: 0x39C }
  - { offset: 0x1C5E29, size: 0x8, addend: 0x0, symName: __ZN9inference7convertIhEEvRKNSt3__16vectorIN2cv3MatENS1_9allocatorIS4_EEEERNS2_IT_NS5_ISA_EEEEb, symObjAddr: 0x1BB94, symBinAddr: 0x335D4, symSize: 0xF8 }
  - { offset: 0x1C627A, size: 0x8, addend: 0x0, symName: __ZN9inference7mat2HWCIhEEvRKN2cv3MatERNSt3__16vectorIT_NS5_9allocatorIS7_EEEE, symObjAddr: 0x1BDAC, symBinAddr: 0x33778, symSize: 0x16C }
  - { offset: 0x1C67AC, size: 0x8, addend: 0x0, symName: __ZN9inference7mat2CHWIhEEvRKN2cv3MatERNSt3__16vectorIT_NS5_9allocatorIS7_EEEE, symObjAddr: 0x1BF18, symBinAddr: 0x338E4, symSize: 0x3DC }
  - { offset: 0x1CAFAE, size: 0x8, addend: 0x0, symName: __ZNSt3__110unique_ptrIN7facesdk12FaceDetectorENS_14default_deleteIS2_EEED1B8ne180100Ev, symObjAddr: 0x0, symBinAddr: 0x1C1C0, symSize: 0x38 }
  - { offset: 0x1CB0C4, size: 0x8, addend: 0x0, symName: __ZNSt3__110unique_ptrIN7facesdk14ClassifierBaseENS_14default_deleteIS2_EEED1B8ne180100Ev, symObjAddr: 0x38, symBinAddr: 0x1C1F8, symSize: 0x38 }
  - { offset: 0x1CB1F6, size: 0x8, addend: 0x0, symName: __ZNSt3__110unique_ptrIN7facesdk15LivenessSessionENS_14default_deleteIS2_EEED1B8ne180100Ev, symObjAddr: 0x70, symBinAddr: 0x1C230, symSize: 0x34 }
  - { offset: 0x1CB2B6, size: 0x8, addend: 0x0, symName: __ZN7facesdk15LivenessSessionD2Ev, symObjAddr: 0x6718, symBinAddr: 0x20DA8, symSize: 0x1AC }
  - { offset: 0x1CC754, size: 0x8, addend: 0x0, symName: __ZNSt3__110unique_ptrIN7facesdk8ResourceENS_14default_deleteIS2_EEED1B8ne180100Ev, symObjAddr: 0xA4, symBinAddr: 0x1C264, symSize: 0x94 }
  - { offset: 0x1CCC85, size: 0x8, addend: 0x0, symName: __ZNSt3__16vectorIhNS_9allocatorIhEEED1B8ne180100Ev, symObjAddr: 0x138, symBinAddr: 0x1C2F8, symSize: 0x30 }
  - { offset: 0x1CCEC5, size: 0x8, addend: 0x0, symName: __ZN7facesdk7processEiPvPcPS0_PS1_.cold.1, symObjAddr: 0x1E62C, symBinAddr: 0xC553D4, symSize: 0x1C }
  - { offset: 0x1CDC18, size: 0x8, addend: 0x0, symName: __ZN8nlohmann16json_abi_v3_11_210basic_jsonINSt3__13mapENS2_6vectorENS2_12basic_stringIcNS2_11char_traitsIcEENS2_9allocatorIcEEEEbxydS8_NS0_14adl_serializerENS4_IhNS8_IhEEEEE5parseIRPKcEESE_OT_NS2_8functionIFbiNS0_6detail13parse_event_tERSE_EEEbb, symObjAddr: 0x1C58, symBinAddr: 0x1DD74, symSize: 0x298 }
  - { offset: 0x1CF6CC, size: 0x8, addend: 0x0, symName: __ZN8nlohmann16json_abi_v3_11_26detail20external_constructorILNS1_7value_tE3EE9constructINS0_10basic_jsonINSt3__13mapENS7_6vectorENS7_12basic_stringIcNS7_11char_traitsIcEENS7_9allocatorIcEEEEbxydSD_NS0_14adl_serializerENS9_IhNSD_IhEEEEEEA9_cLi0EEEvRT_RKT0_, symObjAddr: 0x11268, symBinAddr: 0x2960C, symSize: 0xEC }
  - { offset: 0x1CFCDD, size: 0x8, addend: 0x0, symName: __ZN8nlohmann16json_abi_v3_11_26detail20external_constructorILNS1_7value_tE3EE9constructINS0_10basic_jsonINSt3__13mapENS7_6vectorENS7_12basic_stringIcNS7_11char_traitsIcEENS7_9allocatorIcEEEEbxydSD_NS0_14adl_serializerENS9_IhNSD_IhEEEEEEA6_cLi0EEEvRT_RKT0_, symObjAddr: 0x11354, symBinAddr: 0x296F8, symSize: 0xEC }
  - { offset: 0x1D02EE, size: 0x8, addend: 0x0, symName: __ZN8nlohmann16json_abi_v3_11_26detail20external_constructorILNS1_7value_tE3EE9constructINS0_10basic_jsonINSt3__13mapENS7_6vectorENS7_12basic_stringIcNS7_11char_traitsIcEENS7_9allocatorIcEEEEbxydSD_NS0_14adl_serializerENS9_IhNSD_IhEEEEEEA12_cLi0EEEvRT_RKT0_, symObjAddr: 0x11440, symBinAddr: 0x297E4, symSize: 0xEC }
  - { offset: 0x1D08FF, size: 0x8, addend: 0x0, symName: __ZNK8nlohmann16json_abi_v3_11_210basic_jsonINSt3__13mapENS2_6vectorENS2_12basic_stringIcNS2_11char_traitsIcEENS2_9allocatorIcEEEEbxydS8_NS0_14adl_serializerENS4_IhNS8_IhEEEEE4dumpEicbNS0_6detail15error_handler_tE, symObjAddr: 0x2030, symBinAddr: 0x1E120, symSize: 0x2EC }
  - { offset: 0x1D1546, size: 0x8, addend: 0x0, symName: __ZN8nlohmann16json_abi_v3_11_26detail8json_refINS0_10basic_jsonINSt3__13mapENS4_6vectorENS4_12basic_stringIcNS4_11char_traitsIcEENS4_9allocatorIcEEEEbxydSA_NS0_14adl_serializerENS6_IhNSA_IhEEEEEEED1Ev, symObjAddr: 0x2004, symBinAddr: 0x1E0F4, symSize: 0x2C }
  - { offset: 0x1D273C, size: 0x8, addend: 0x0, symName: __ZNK8nlohmann16json_abi_v3_11_210basic_jsonINSt3__13mapENS2_6vectorENS2_12basic_stringIcNS2_11char_traitsIcEENS2_9allocatorIcEEEEbxydS8_NS0_14adl_serializerENS4_IhNS8_IhEEEEE2atERKSA_, symObjAddr: 0x13A7C, symBinAddr: 0x2BA44, symSize: 0x230 }
  - { offset: 0x1D3F6A, size: 0x8, addend: 0x0, symName: __ZN13EncryptionKeyIL7KeyType0EE10FromStringERKNSt3__112basic_stringIcNS2_11char_traitsIcEENS2_9allocatorIcEEEE, symObjAddr: 0x2FAC, symBinAddr: 0x1EC18, symSize: 0x304 }
  - { offset: 0x1D4EA8, size: 0x8, addend: 0x0, symName: __ZN8Security15DoubleEncryptorD1Ev, symObjAddr: 0x32F0, symBinAddr: 0x1EF5C, symSize: 0x84 }
  - { offset: 0x1D54B2, size: 0x8, addend: 0x0, symName: __ZN12SharedSecretD1Ev, symObjAddr: 0x32B0, symBinAddr: 0x1EF1C, symSize: 0x40 }
  - { offset: 0x1D5E47, size: 0x8, addend: 0x0, symName: __ZN8nlohmann16json_abi_v3_11_26detail6parserINS0_10basic_jsonINSt3__13mapENS4_6vectorENS4_12basic_stringIcNS4_11char_traitsIcEENS4_9allocatorIcEEEEbxydSA_NS0_14adl_serializerENS6_IhNSA_IhEEEEEENS1_22iterator_input_adapterIPKcEEEC2EOSK_NS4_8functionIFbiNS1_13parse_event_tERSG_EEEbb, symObjAddr: 0x7E84, symBinAddr: 0x2179C, symSize: 0x134 }
  - { offset: 0x1D6082, size: 0x8, addend: 0x0, symName: __ZN8nlohmann16json_abi_v3_11_26detail6parserINS0_10basic_jsonINSt3__13mapENS4_6vectorENS4_12basic_stringIcNS4_11char_traitsIcEENS4_9allocatorIcEEEEbxydSA_NS0_14adl_serializerENS6_IhNSA_IhEEEEEENS1_22iterator_input_adapterIPKcEEE5parseEbRSG_, symObjAddr: 0x76BC, symBinAddr: 0x2104C, symSize: 0x750 }
  - { offset: 0x1D89CF, size: 0x8, addend: 0x0, symName: __ZN8nlohmann16json_abi_v3_11_26detail10serializerINS0_10basic_jsonINSt3__13mapENS4_6vectorENS4_12basic_stringIcNS4_11char_traitsIcEENS4_9allocatorIcEEEEbxydSA_NS0_14adl_serializerENS6_IhNSA_IhEEEEEEE4dumpERKSG_bbjj, symObjAddr: 0x115EC, symBinAddr: 0x298D0, symSize: 0x1024 }
  - { offset: 0x1DA820, size: 0x8, addend: 0x0, symName: __ZN8nlohmann16json_abi_v3_11_26detail10serializerINS0_10basic_jsonINSt3__13mapENS4_6vectorENS4_12basic_stringIcNS4_11char_traitsIcEENS4_9allocatorIcEEEEbxydSA_NS0_14adl_serializerENS6_IhNSA_IhEEEEEEED1Ev, symObjAddr: 0x12610, symBinAddr: 0x2A8F4, symSize: 0x78 }
  - { offset: 0x1DAA06, size: 0x8, addend: 0x0, symName: __ZNK8nlohmann16json_abi_v3_11_210basic_jsonINSt3__13mapENS2_6vectorENS2_12basic_stringIcNS2_11char_traitsIcEENS2_9allocatorIcEEEEbxydS8_NS0_14adl_serializerENS4_IhNS8_IhEEEEE4dumpEicbNS0_6detail15error_handler_tE.cold.1, symObjAddr: 0x1E648, symBinAddr: 0xC553F0, symSize: 0x2C }
  - { offset: 0x1DC05D, size: 0x8, addend: 0x0, symName: __ZN7facesdk15LivenessProcessERKN2cv3MatERKN8nlohmann16json_abi_v3_11_210basic_jsonINSt3__13mapENS7_6vectorENS7_12basic_stringIcNS7_11char_traitsIcEENS7_9allocatorIcEEEEbxydSD_NS5_14adl_serializerENS9_IhNSD_IhEEEEEE, symObjAddr: 0x28CC, symBinAddr: 0x1E538, symSize: 0x6E0 }
  - { offset: 0x1DCD0D, size: 0x8, addend: 0x0, symName: __ZNK8nlohmann16json_abi_v3_11_210basic_jsonINSt3__13mapENS2_6vectorENS2_12basic_stringIcNS2_11char_traitsIcEENS2_9allocatorIcEEEEbxydS8_NS0_14adl_serializerENS4_IhNS8_IhEEEEE2atIRKPKcLi0EEERKSE_OT_, symObjAddr: 0x4B34, symBinAddr: 0x20500, symSize: 0x1F0 }
  - { offset: 0x1DD380, size: 0x8, addend: 0x0, symName: __ZNK8nlohmann16json_abi_v3_11_210basic_jsonINSt3__13mapENS2_6vectorENS2_12basic_stringIcNS2_11char_traitsIcEENS2_9allocatorIcEEEEbxydS8_NS0_14adl_serializerENS4_IhNS8_IhEEEEE5valueIfRA4_KcfLi0EEET1_OT0_OT_, symObjAddr: 0x4D24, symBinAddr: 0x206F0, symSize: 0x1F4 }
  - { offset: 0x1DDAA0, size: 0x8, addend: 0x0, symName: __ZNK8nlohmann16json_abi_v3_11_210basic_jsonINSt3__13mapENS2_6vectorENS2_12basic_stringIcNS2_11char_traitsIcEENS2_9allocatorIcEEEEbxydS8_NS0_14adl_serializerENS4_IhNS8_IhEEEEE5valueIfRA6_KcfLi0EEET1_OT0_OT_, symObjAddr: 0x4F18, symBinAddr: 0x208E4, symSize: 0x1F4 }
  - { offset: 0x1DE1D8, size: 0x8, addend: 0x0, symName: __ZNK8nlohmann16json_abi_v3_11_210basic_jsonINSt3__13mapENS2_6vectorENS2_12basic_stringIcNS2_11char_traitsIcEENS2_9allocatorIcEEEEbxydS8_NS0_14adl_serializerENS4_IhNS8_IhEEEEE5valueIfRA5_KcfLi0EEET1_OT0_OT_, symObjAddr: 0x510C, symBinAddr: 0x20AD8, symSize: 0x1F4 }
  - { offset: 0x1DF149, size: 0x8, addend: 0x0, symName: __ZNK8nlohmann16json_abi_v3_11_210basic_jsonINSt3__13mapENS2_6vectorENS2_12basic_stringIcNS2_11char_traitsIcEENS2_9allocatorIcEEEEbxydS8_NS0_14adl_serializerENS4_IhNS8_IhEEEEE8containsIRKPKcLi0EEEbOT_, symObjAddr: 0x4A7C, symBinAddr: 0x20448, symSize: 0xB8 }
  - { offset: 0x1DF3BB, size: 0x8, addend: 0x0, symName: __ZNSt3__16vectorIN7facesdk5LFaceENS_9allocatorIS2_EEE24__emplace_back_slow_pathIJEEEPS2_DpOT_, symObjAddr: 0x1DF78, symBinAddr: 0x3491C, symSize: 0x1B0 }
  - { offset: 0x1E17A7, size: 0x8, addend: 0x0, symName: __ZN9inference21InferenceRunnerParams11inout_paramIxEC2ERKNSt3__112basic_stringIcNS3_11char_traitsIcEENS3_9allocatorIcEEEERKNS3_6vectorIxNS7_IxEEEE, symObjAddr: 0x140CC, symBinAddr: 0x2BD3C, symSize: 0xF4 }
  - { offset: 0x1E1CC6, size: 0x8, addend: 0x0, symName: __ZN7facesdk18FaceDetectorRetinaIN9inference18InferenceRunnerORTEEC2ERKNS_18FaceDetectorParamsENSt3__110unique_ptrINS1_15InferenceRunnerIS2_EENS7_14default_deleteISA_EEEERKNS_12PriorsConfigE, symObjAddr: 0x14354, symBinAddr: 0x2BF9C, symSize: 0x190 }
  - { offset: 0x1E26D4, size: 0x8, addend: 0x0, symName: __ZN7facesdk12PriorsConfigD1Ev, symObjAddr: 0x4948, symBinAddr: 0x203B4, symSize: 0x94 }
  - { offset: 0x1E2BF6, size: 0x8, addend: 0x0, symName: __ZNSt3__16vectorINS0_IiNS_9allocatorIiEEEENS1_IS3_EEED1B8ne180100Ev, symObjAddr: 0x48D4, symBinAddr: 0x20340, symSize: 0x74 }
  - { offset: 0x1E2E90, size: 0x8, addend: 0x0, symName: __ZN7facesdk16initFaceDetectorEv.cold.1, symObjAddr: 0x1E674, symBinAddr: 0xC5541C, symSize: 0x48 }
  - { offset: 0x1E2FD9, size: 0x8, addend: 0x0, symName: __ZN9inference21InferenceRunnerParamsD2Ev, symObjAddr: 0x5AAC, symBinAddr: 0x20CD0, symSize: 0xD8 }
  - { offset: 0x1E37E3, size: 0x8, addend: 0x0, symName: __ZN9inference21InferenceRunnerParams11inout_paramIxED1Ev, symObjAddr: 0x4884, symBinAddr: 0x202F0, symSize: 0x50 }
  - { offset: 0x1E3DB9, size: 0x8, addend: 0x0, symName: __ZN7facesdk21initOcclusionDetectorEv.cold.1, symObjAddr: 0x1E6BC, symBinAddr: 0xC55464, symSize: 0x40 }
  - { offset: 0x1E5AAA, size: 0x8, addend: 0x0, symName: _process, symObjAddr: 0x53E8, symBinAddr: 0x20CCC, symSize: 0x4 }
  - { offset: 0x1E5B14, size: 0x8, addend: 0x0, symName: _process, symObjAddr: 0x53E8, symBinAddr: 0x20CCC, symSize: 0x4 }
  - { offset: 0x1E948D, size: 0x8, addend: 0x0, symName: __ZN8nlohmann16json_abi_v3_11_210basic_jsonINSt3__13mapENS2_6vectorENS2_12basic_stringIcNS2_11char_traitsIcEENS2_9allocatorIcEEEEbxydS8_NS0_14adl_serializerENS4_IhNS8_IhEEEEE10json_valueC2ENS0_6detail7value_tE, symObjAddr: 0x7020, symBinAddr: 0x20F54, symSize: 0xF8 }
  - { offset: 0x1EA97C, size: 0x8, addend: 0x0, symName: __ZN8nlohmann16json_abi_v3_11_26detail6parserINS0_10basic_jsonINSt3__13mapENS4_6vectorENS4_12basic_stringIcNS4_11char_traitsIcEENS4_9allocatorIcEEEEbxydSA_NS0_14adl_serializerENS6_IhNSA_IhEEEEEENS1_22iterator_input_adapterIPKcEEE18sax_parse_internalINS1_19json_sax_dom_parserISG_EEEEbPT_, symObjAddr: 0xB178, symBinAddr: 0x24294, symSize: 0xC74 }
  - { offset: 0x1EC836, size: 0x8, addend: 0x0, symName: __ZN8nlohmann16json_abi_v3_11_26detail5lexerINS0_10basic_jsonINSt3__13mapENS4_6vectorENS4_12basic_stringIcNS4_11char_traitsIcEENS4_9allocatorIcEEEEbxydSA_NS0_14adl_serializerENS6_IhNSA_IhEEEEEENS1_22iterator_input_adapterIPKcEEE4scanEv, symObjAddr: 0x8004, symBinAddr: 0x218D0, symSize: 0x28C }
  - { offset: 0x1ECB67, size: 0x8, addend: 0x0, symName: __ZN8nlohmann16json_abi_v3_11_26detail28json_sax_dom_callback_parserINS0_10basic_jsonINSt3__13mapENS4_6vectorENS4_12basic_stringIcNS4_11char_traitsIcEENS4_9allocatorIcEEEEbxydSA_NS0_14adl_serializerENS6_IhNSA_IhEEEEEEEC2ERSG_NS4_8functionIFbiNS1_13parse_event_tESI_EEEb, symObjAddr: 0xBE40, symBinAddr: 0x24F5C, symSize: 0x1C4 }
  - { offset: 0x1ED13A, size: 0x8, addend: 0x0, symName: __ZN8nlohmann16json_abi_v3_11_26detail6parserINS0_10basic_jsonINSt3__13mapENS4_6vectorENS4_12basic_stringIcNS4_11char_traitsIcEENS4_9allocatorIcEEEEbxydSA_NS0_14adl_serializerENS6_IhNSA_IhEEEEEENS1_22iterator_input_adapterIPKcEEE18sax_parse_internalINS1_28json_sax_dom_callback_parserISG_EEEEbPT_, symObjAddr: 0x9D98, symBinAddr: 0x2312C, symSize: 0xC64 }
  - { offset: 0x1EEF7E, size: 0x8, addend: 0x0, symName: __ZN8nlohmann16json_abi_v3_11_26detail6parserINS0_10basic_jsonINSt3__13mapENS4_6vectorENS4_12basic_stringIcNS4_11char_traitsIcEENS4_9allocatorIcEEEEbxydSA_NS0_14adl_serializerENS6_IhNSA_IhEEEEEENS1_22iterator_input_adapterIPKcEEE17exception_messageENS1_10lexer_baseISG_E10token_typeERKSC_, symObjAddr: 0xAD7C, symBinAddr: 0x23EC8, symSize: 0x3CC }
  - { offset: 0x1F0C8B, size: 0x8, addend: 0x0, symName: __ZN8nlohmann16json_abi_v3_11_26detail28json_sax_dom_callback_parserINS0_10basic_jsonINSt3__13mapENS4_6vectorENS4_12basic_stringIcNS4_11char_traitsIcEENS4_9allocatorIcEEEEbxydSA_NS0_14adl_serializerENS6_IhNSA_IhEEEEEEED2Ev, symObjAddr: 0xF9FC, symBinAddr: 0x27DA0, symSize: 0x88 }
  - { offset: 0x1F15F3, size: 0x8, addend: 0x0, symName: __ZN8nlohmann16json_abi_v3_11_26detail5lexerINS0_10basic_jsonINSt3__13mapENS4_6vectorENS4_12basic_stringIcNS4_11char_traitsIcEENS4_9allocatorIcEEEEbxydSA_NS0_14adl_serializerENS6_IhNSA_IhEEEEEENS1_22iterator_input_adapterIPKcEEE15skip_whitespaceEv, symObjAddr: 0x8290, symBinAddr: 0x21B5C, symSize: 0x274 }
  - { offset: 0x1F1B28, size: 0x8, addend: 0x0, symName: __ZN8nlohmann16json_abi_v3_11_26detail5lexerINS0_10basic_jsonINSt3__13mapENS4_6vectorENS4_12basic_stringIcNS4_11char_traitsIcEENS4_9allocatorIcEEEEbxydSA_NS0_14adl_serializerENS6_IhNSA_IhEEEEEENS1_22iterator_input_adapterIPKcEEE11scan_numberEv, symObjAddr: 0x937C, symBinAddr: 0x22B28, symSize: 0x604 }
  - { offset: 0x1F28BD, size: 0x8, addend: 0x0, symName: __ZN8nlohmann16json_abi_v3_11_26detail5lexerINS0_10basic_jsonINSt3__13mapENS4_6vectorENS4_12basic_stringIcNS4_11char_traitsIcEENS4_9allocatorIcEEEEbxydSA_NS0_14adl_serializerENS6_IhNSA_IhEEEEEENS1_22iterator_input_adapterIPKcEEE11scan_stringEv, symObjAddr: 0x8624, symBinAddr: 0x21DD0, symSize: 0xD58 }
  - { offset: 0x1F46EF, size: 0x8, addend: 0x0, symName: __ZN8nlohmann16json_abi_v3_11_26detail28json_sax_dom_callback_parserINS0_10basic_jsonINSt3__13mapENS4_6vectorENS4_12basic_stringIcNS4_11char_traitsIcEENS4_9allocatorIcEEEEbxydSA_NS0_14adl_serializerENS6_IhNSA_IhEEEEEEE12handle_valueIRbEENS4_4pairIbPSG_EEOT_b, symObjAddr: 0xEA74, symBinAddr: 0x272B0, symSize: 0x214 }
  - { offset: 0x1F4DEC, size: 0x8, addend: 0x0, symName: __ZN8nlohmann16json_abi_v3_11_26detail28json_sax_dom_callback_parserINS0_10basic_jsonINSt3__13mapENS4_6vectorENS4_12basic_stringIcNS4_11char_traitsIcEENS4_9allocatorIcEEEEbxydSA_NS0_14adl_serializerENS6_IhNSA_IhEEEEEEE11start_arrayEm, symObjAddr: 0xC91C, symBinAddr: 0x25924, symSize: 0x36C }
  - { offset: 0x1F5627, size: 0x8, addend: 0x0, symName: __ZN8nlohmann16json_abi_v3_11_26detail28json_sax_dom_callback_parserINS0_10basic_jsonINSt3__13mapENS4_6vectorENS4_12basic_stringIcNS4_11char_traitsIcEENS4_9allocatorIcEEEEbxydSA_NS0_14adl_serializerENS6_IhNSA_IhEEEEEEE9end_arrayEv, symObjAddr: 0xCC88, symBinAddr: 0x25C90, symSize: 0x168 }
  - { offset: 0x1F5A1F, size: 0x8, addend: 0x0, symName: __ZN8nlohmann16json_abi_v3_11_26detail28json_sax_dom_callback_parserINS0_10basic_jsonINSt3__13mapENS4_6vectorENS4_12basic_stringIcNS4_11char_traitsIcEENS4_9allocatorIcEEEEbxydSA_NS0_14adl_serializerENS6_IhNSA_IhEEEEEEE12handle_valueIRxEENS4_4pairIbPSG_EEOT_b, symObjAddr: 0xEE94, symBinAddr: 0x276D0, symSize: 0x210 }
  - { offset: 0x1F6130, size: 0x8, addend: 0x0, symName: __ZN8nlohmann16json_abi_v3_11_26detail28json_sax_dom_callback_parserINS0_10basic_jsonINSt3__13mapENS4_6vectorENS4_12basic_stringIcNS4_11char_traitsIcEENS4_9allocatorIcEEEEbxydSA_NS0_14adl_serializerENS6_IhNSA_IhEEEEEEE12handle_valueIDnEENS4_4pairIbPSG_EEOT_b, symObjAddr: 0xEC88, symBinAddr: 0x274C4, symSize: 0x20C }
  - { offset: 0x1F67FF, size: 0x8, addend: 0x0, symName: __ZN8nlohmann16json_abi_v3_11_26detail28json_sax_dom_callback_parserINS0_10basic_jsonINSt3__13mapENS4_6vectorENS4_12basic_stringIcNS4_11char_traitsIcEENS4_9allocatorIcEEEEbxydSA_NS0_14adl_serializerENS6_IhNSA_IhEEEEEEE12start_objectEm, symObjAddr: 0xC118, symBinAddr: 0x25120, symSize: 0x368 }
  - { offset: 0x1F703A, size: 0x8, addend: 0x0, symName: __ZN8nlohmann16json_abi_v3_11_26detail28json_sax_dom_callback_parserINS0_10basic_jsonINSt3__13mapENS4_6vectorENS4_12basic_stringIcNS4_11char_traitsIcEENS4_9allocatorIcEEEEbxydSA_NS0_14adl_serializerENS6_IhNSA_IhEEEEEEE10end_objectEv, symObjAddr: 0xC480, symBinAddr: 0x25488, symSize: 0x28C }
  - { offset: 0x1F78A0, size: 0x8, addend: 0x0, symName: __ZN8nlohmann16json_abi_v3_11_26detail28json_sax_dom_callback_parserINS0_10basic_jsonINSt3__13mapENS4_6vectorENS4_12basic_stringIcNS4_11char_traitsIcEENS4_9allocatorIcEEEEbxydSA_NS0_14adl_serializerENS6_IhNSA_IhEEEEEEE12handle_valueIRSC_EENS4_4pairIbPSG_EEOT_b, symObjAddr: 0xF0A4, symBinAddr: 0x278E0, symSize: 0x254 }
  - { offset: 0x1F8259, size: 0x8, addend: 0x0, symName: __ZN8nlohmann16json_abi_v3_11_26detail28json_sax_dom_callback_parserINS0_10basic_jsonINSt3__13mapENS4_6vectorENS4_12basic_stringIcNS4_11char_traitsIcEENS4_9allocatorIcEEEEbxydSA_NS0_14adl_serializerENS6_IhNSA_IhEEEEEEE12handle_valueIRdEENS4_4pairIbPSG_EEOT_b, symObjAddr: 0xE860, symBinAddr: 0x2709C, symSize: 0x214 }
  - { offset: 0x1F896B, size: 0x8, addend: 0x0, symName: __ZN8nlohmann16json_abi_v3_11_26detail28json_sax_dom_callback_parserINS0_10basic_jsonINSt3__13mapENS4_6vectorENS4_12basic_stringIcNS4_11char_traitsIcEENS4_9allocatorIcEEEEbxydSA_NS0_14adl_serializerENS6_IhNSA_IhEEEEEEE12handle_valueIRyEENS4_4pairIbPSG_EEOT_b, symObjAddr: 0xF2F8, symBinAddr: 0x27B34, symSize: 0x214 }
  - { offset: 0x1F9076, size: 0x8, addend: 0x0, symName: __ZN8nlohmann16json_abi_v3_11_26detail28json_sax_dom_callback_parserINS0_10basic_jsonINSt3__13mapENS4_6vectorENS4_12basic_stringIcNS4_11char_traitsIcEENS4_9allocatorIcEEEEbxydSA_NS0_14adl_serializerENS6_IhNSA_IhEEEEEEE3keyERSC_, symObjAddr: 0xC70C, symBinAddr: 0x25714, symSize: 0x210 }
  - { offset: 0x1F99D5, size: 0x8, addend: 0x0, symName: __ZNK8nlohmann16json_abi_v3_11_26detail5lexerINS0_10basic_jsonINSt3__13mapENS4_6vectorENS4_12basic_stringIcNS4_11char_traitsIcEENS4_9allocatorIcEEEEbxydSA_NS0_14adl_serializerENS6_IhNSA_IhEEEEEENS1_22iterator_input_adapterIPKcEEE16get_token_stringEv, symObjAddr: 0xAA50, symBinAddr: 0x23DE4, symSize: 0xE4 }
  - { offset: 0x1F9C5E, size: 0x8, addend: 0x0, symName: __ZN8nlohmann16json_abi_v3_11_26detail28json_sax_dom_callback_parserINS0_10basic_jsonINSt3__13mapENS4_6vectorENS4_12basic_stringIcNS4_11char_traitsIcEENS4_9allocatorIcEEEEbxydSA_NS0_14adl_serializerENS6_IhNSA_IhEEEEEEE11parse_errorINS1_11parse_errorEEEbmRKSC_RKT_, symObjAddr: 0xA9FC, symBinAddr: 0x23D90, symSize: 0x54 }
  - { offset: 0x1FA531, size: 0x8, addend: 0x0, symName: __ZN8nlohmann16json_abi_v3_11_26detail28json_sax_dom_callback_parserINS0_10basic_jsonINSt3__13mapENS4_6vectorENS4_12basic_stringIcNS4_11char_traitsIcEENS4_9allocatorIcEEEEbxydSA_NS0_14adl_serializerENS6_IhNSA_IhEEEEEEE11parse_errorINS1_12out_of_rangeEEEbmRKSC_RKT_, symObjAddr: 0xCDF0, symBinAddr: 0x25DF8, symSize: 0x54 }
  - { offset: 0x1FA5B7, size: 0x8, addend: 0x0, symName: __ZN8nlohmann16json_abi_v3_11_26detail28json_sax_dom_callback_parserINS0_10basic_jsonINSt3__13mapENS4_6vectorENS4_12basic_stringIcNS4_11char_traitsIcEENS4_9allocatorIcEEEEbxydSA_NS0_14adl_serializerENS6_IhNSA_IhEEEEEEE12start_objectEm, symObjAddr: 0xC118, symBinAddr: 0x25120, symSize: 0x368 }
  - { offset: 0x1FA5C2, size: 0x8, addend: 0x0, symName: __ZN8nlohmann16json_abi_v3_11_26detail11parse_errorC1ERKS2_, symObjAddr: 0xF50C, symBinAddr: 0x27D48, symSize: 0x58 }
  - { offset: 0x1FAB22, size: 0x8, addend: 0x0, symName: __ZN8nlohmann16json_abi_v3_11_26detail19json_sax_dom_parserINS0_10basic_jsonINSt3__13mapENS4_6vectorENS4_12basic_stringIcNS4_11char_traitsIcEENS4_9allocatorIcEEEEbxydSA_NS0_14adl_serializerENS6_IhNSA_IhEEEEEEE12handle_valueIRbEEPSG_OT_, symObjAddr: 0x105F0, symBinAddr: 0x28994, symSize: 0x11C }
  - { offset: 0x1FAFFC, size: 0x8, addend: 0x0, symName: __ZN8nlohmann16json_abi_v3_11_26detail19json_sax_dom_parserINS0_10basic_jsonINSt3__13mapENS4_6vectorENS4_12basic_stringIcNS4_11char_traitsIcEENS4_9allocatorIcEEEEbxydSA_NS0_14adl_serializerENS6_IhNSA_IhEEEEEEE11start_arrayEm, symObjAddr: 0xFD28, symBinAddr: 0x280CC, symSize: 0x2A4 }
  - { offset: 0x1FB6A6, size: 0x8, addend: 0x0, symName: __ZN8nlohmann16json_abi_v3_11_26detail19json_sax_dom_parserINS0_10basic_jsonINSt3__13mapENS4_6vectorENS4_12basic_stringIcNS4_11char_traitsIcEENS4_9allocatorIcEEEEbxydSA_NS0_14adl_serializerENS6_IhNSA_IhEEEEEEE12handle_valueIRxEEPSG_OT_, symObjAddr: 0x10A20, symBinAddr: 0x28DC4, symSize: 0x11C }
  - { offset: 0x1FBB8E, size: 0x8, addend: 0x0, symName: __ZN8nlohmann16json_abi_v3_11_26detail19json_sax_dom_parserINS0_10basic_jsonINSt3__13mapENS4_6vectorENS4_12basic_stringIcNS4_11char_traitsIcEENS4_9allocatorIcEEEEbxydSA_NS0_14adl_serializerENS6_IhNSA_IhEEEEEEE12handle_valueIDnEEPSG_OT_, symObjAddr: 0x1081C, symBinAddr: 0x28BC0, symSize: 0x100 }
  - { offset: 0x1FBFEF, size: 0x8, addend: 0x0, symName: __ZN8nlohmann16json_abi_v3_11_26detail19json_sax_dom_parserINS0_10basic_jsonINSt3__13mapENS4_6vectorENS4_12basic_stringIcNS4_11char_traitsIcEENS4_9allocatorIcEEEEbxydSA_NS0_14adl_serializerENS6_IhNSA_IhEEEEEEE12start_objectEm, symObjAddr: 0xFA84, symBinAddr: 0x27E28, symSize: 0x2A4 }
  - { offset: 0x1FC696, size: 0x8, addend: 0x0, symName: __ZN8nlohmann16json_abi_v3_11_26detail19json_sax_dom_parserINS0_10basic_jsonINSt3__13mapENS4_6vectorENS4_12basic_stringIcNS4_11char_traitsIcEENS4_9allocatorIcEEEEbxydSA_NS0_14adl_serializerENS6_IhNSA_IhEEEEEEE12handle_valueIRSC_EEPSG_OT_, symObjAddr: 0x10C4C, symBinAddr: 0x28FF0, symSize: 0x220 }
  - { offset: 0x1FD35C, size: 0x8, addend: 0x0, symName: __ZN8nlohmann16json_abi_v3_11_26detail19json_sax_dom_parserINS0_10basic_jsonINSt3__13mapENS4_6vectorENS4_12basic_stringIcNS4_11char_traitsIcEENS4_9allocatorIcEEEEbxydSA_NS0_14adl_serializerENS6_IhNSA_IhEEEEEEE12handle_valueIRdEEPSG_OT_, symObjAddr: 0x103C4, symBinAddr: 0x28768, symSize: 0x11C }
  - { offset: 0x1FD846, size: 0x8, addend: 0x0, symName: __ZN8nlohmann16json_abi_v3_11_26detail19json_sax_dom_parserINS0_10basic_jsonINSt3__13mapENS4_6vectorENS4_12basic_stringIcNS4_11char_traitsIcEENS4_9allocatorIcEEEEbxydSA_NS0_14adl_serializerENS6_IhNSA_IhEEEEEEE12handle_valueIRyEEPSG_OT_, symObjAddr: 0x1103C, symBinAddr: 0x293E0, symSize: 0x11C }
  - { offset: 0x1FDD3E, size: 0x8, addend: 0x0, symName: __ZNSt3__16__treeINS_12__value_typeINS_12basic_stringIcNS_11char_traitsIcEENS_9allocatorIcEEEEN8nlohmann16json_abi_v3_11_210basic_jsonINS_3mapENS_6vectorES7_bxydS5_NS9_14adl_serializerENSC_IhNS5_IhEEEEEEEENS_19__map_value_compareIS7_SH_NS_4lessIvEELb1EEENS5_ISH_EEE25__emplace_unique_key_argsIS7_JRKNS_21piecewise_construct_tENS_5tupleIJRKS7_EEENSS_IJEEEEEENS_4pairINS_15__tree_iteratorISH_PNS_11__tree_nodeISH_PvEElEEbEERKT_DpOT0_, symObjAddr: 0xE5D4, symBinAddr: 0x26E10, symSize: 0x1A0 }
  - { offset: 0x1FE4DC, size: 0x8, addend: 0x0, symName: __ZN8nlohmann16json_abi_v3_11_26detail19json_sax_dom_parserINS0_10basic_jsonINSt3__13mapENS4_6vectorENS4_12basic_stringIcNS4_11char_traitsIcEENS4_9allocatorIcEEEEbxydSA_NS0_14adl_serializerENS6_IhNSA_IhEEEEEEE11parse_errorINS1_11parse_errorEEEbmRKSC_RKT_, symObjAddr: 0xBDEC, symBinAddr: 0x24F08, symSize: 0x54 }
  - { offset: 0x1FE52D, size: 0x8, addend: 0x0, symName: __ZN8nlohmann16json_abi_v3_11_26detail19json_sax_dom_parserINS0_10basic_jsonINSt3__13mapENS4_6vectorENS4_12basic_stringIcNS4_11char_traitsIcEENS4_9allocatorIcEEEEbxydSA_NS0_14adl_serializerENS6_IhNSA_IhEEEEEEE11parse_errorINS1_12out_of_rangeEEEbmRKSC_RKT_, symObjAddr: 0xFFCC, symBinAddr: 0x28370, symSize: 0x54 }
  - { offset: 0x1FEB65, size: 0x8, addend: 0x0, symName: __ZN8nlohmann16json_abi_v3_11_26detail28json_sax_dom_callback_parserINS0_10basic_jsonINSt3__13mapENS4_6vectorENS4_12basic_stringIcNS4_11char_traitsIcEENS4_9allocatorIcEEEEbxydSA_NS0_14adl_serializerENS6_IhNSA_IhEEEEEEE12handle_valueINS1_7value_tEEENS4_4pairIbPSG_EEOT_b, symObjAddr: 0xD0F8, symBinAddr: 0x25E4C, symSize: 0x2A8 }
  - { offset: 0x2001E5, size: 0x8, addend: 0x0, symName: __ZNK8nlohmann16json_abi_v3_11_26detail9iter_implINS0_10basic_jsonINSt3__13mapENS4_6vectorENS4_12basic_stringIcNS4_11char_traitsIcEENS4_9allocatorIcEEEEbxydSA_NS0_14adl_serializerENS6_IhNSA_IhEEEEEEEeqISH_LDn0EEEbRKT_, symObjAddr: 0xDBD8, symBinAddr: 0x266C8, symSize: 0x108 }
  - { offset: 0x200439, size: 0x8, addend: 0x0, symName: __ZNK8nlohmann16json_abi_v3_11_26detail9iter_implINS0_10basic_jsonINSt3__13mapENS4_6vectorENS4_12basic_stringIcNS4_11char_traitsIcEENS4_9allocatorIcEEEEbxydSA_NS0_14adl_serializerENS6_IhNSA_IhEEEEEEEptEv, symObjAddr: 0xD7B8, symBinAddr: 0x262A8, symSize: 0x100 }
  - { offset: 0x200654, size: 0x8, addend: 0x0, symName: __ZN8nlohmann16json_abi_v3_11_210basic_jsonINSt3__13mapENS2_6vectorENS2_12basic_stringIcNS2_11char_traitsIcEENS2_9allocatorIcEEEEbxydS8_NS0_14adl_serializerENS4_IhNS8_IhEEEEE5eraseINS0_6detail9iter_implISE_EELi0EEET_SJ_, symObjAddr: 0xD8B8, symBinAddr: 0x263A8, symSize: 0x320 }
  - { offset: 0x20111E, size: 0x8, addend: 0x0, symName: __ZN8nlohmann16json_abi_v3_11_26detail12out_of_rangeC1ERKS2_, symObjAddr: 0xE814, symBinAddr: 0x27050, symSize: 0x4C }
  - { offset: 0x201314, size: 0x8, addend: 0x0, symName: __ZNSt3__16vectorIN8nlohmann16json_abi_v3_11_210basic_jsonINS_3mapES0_NS_12basic_stringIcNS_11char_traitsIcEENS_9allocatorIcEEEEbxydS8_NS2_14adl_serializerENS0_IhNS8_IhEEEEEENS8_ISE_EEE24__emplace_back_slow_pathIJSE_EEEPSE_DpOT_, symObjAddr: 0xD65C, symBinAddr: 0x26194, symSize: 0x114 }
  - { offset: 0x2018EF, size: 0x8, addend: 0x0, symName: __ZN8nlohmann16json_abi_v3_11_26detail16invalid_iterator6createIPNS0_10basic_jsonINSt3__13mapENS5_6vectorENS5_12basic_stringIcNS5_11char_traitsIcEENS5_9allocatorIcEEEEbxydSB_NS0_14adl_serializerENS7_IhNSB_IhEEEEEELi0EEES2_iRKSD_T_, symObjAddr: 0xDCE0, symBinAddr: 0x267D0, symSize: 0x1C4 }
  - { offset: 0x2027F5, size: 0x8, addend: 0x0, symName: __ZNSt3__16__treeINS_12__value_typeINS_12basic_stringIcNS_11char_traitsIcEENS_9allocatorIcEEEEN8nlohmann16json_abi_v3_11_210basic_jsonINS_3mapENS_6vectorES7_bxydS5_NS9_14adl_serializerENSC_IhNS5_IhEEEEEEEENS_19__map_value_compareIS7_SH_NS_4lessIvEELb1EEENS5_ISH_EEE5eraseENS_21__tree_const_iteratorISH_PNS_11__tree_nodeISH_PvEElEE, symObjAddr: 0xE158, symBinAddr: 0x26994, symSize: 0xB8 }
  - { offset: 0x2033BD, size: 0x8, addend: 0x0, symName: __ZN8nlohmann16json_abi_v3_11_26detail19json_sax_dom_parserINS0_10basic_jsonINSt3__13mapENS4_6vectorENS4_12basic_stringIcNS4_11char_traitsIcEENS4_9allocatorIcEEEEbxydSA_NS0_14adl_serializerENS6_IhNSA_IhEEEEEEE12handle_valueINS1_7value_tEEEPSG_OT_, symObjAddr: 0x10020, symBinAddr: 0x283C4, symSize: 0x24C }
  - { offset: 0x204331, size: 0x8, addend: 0x0, symName: __ZNSt3__16vectorIN8nlohmann16json_abi_v3_11_210basic_jsonINS_3mapES0_NS_12basic_stringIcNS_11char_traitsIcEENS_9allocatorIcEEEEbxydS8_NS2_14adl_serializerENS0_IhNS8_IhEEEEEENS8_ISE_EEE24__emplace_back_slow_pathIJNS2_6detail7value_tEEEEPSE_DpOT_, symObjAddr: 0x1026C, symBinAddr: 0x28610, symSize: 0x158 }
  - { offset: 0x204AE3, size: 0x8, addend: 0x0, symName: __ZNSt3__16vectorIN8nlohmann16json_abi_v3_11_210basic_jsonINS_3mapES0_NS_12basic_stringIcNS_11char_traitsIcEENS_9allocatorIcEEEEbxydS8_NS2_14adl_serializerENS0_IhNS8_IhEEEEEENS8_ISE_EEE24__emplace_back_slow_pathIJRdEEEPSE_DpOT_, symObjAddr: 0x104E0, symBinAddr: 0x28884, symSize: 0x110 }
  - { offset: 0x205174, size: 0x8, addend: 0x0, symName: __ZNSt3__16vectorIN8nlohmann16json_abi_v3_11_210basic_jsonINS_3mapES0_NS_12basic_stringIcNS_11char_traitsIcEENS_9allocatorIcEEEEbxydS8_NS2_14adl_serializerENS0_IhNS8_IhEEEEEENS8_ISE_EEE24__emplace_back_slow_pathIJRbEEEPSE_DpOT_, symObjAddr: 0x1070C, symBinAddr: 0x28AB0, symSize: 0x110 }
  - { offset: 0x2057F5, size: 0x8, addend: 0x0, symName: __ZNSt3__16vectorIN8nlohmann16json_abi_v3_11_210basic_jsonINS_3mapES0_NS_12basic_stringIcNS_11char_traitsIcEENS_9allocatorIcEEEEbxydS8_NS2_14adl_serializerENS0_IhNS8_IhEEEEEENS8_ISE_EEE24__emplace_back_slow_pathIJDnEEEPSE_DpOT_, symObjAddr: 0x1091C, symBinAddr: 0x28CC0, symSize: 0x104 }
  - { offset: 0x205E52, size: 0x8, addend: 0x0, symName: __ZNSt3__16vectorIN8nlohmann16json_abi_v3_11_210basic_jsonINS_3mapES0_NS_12basic_stringIcNS_11char_traitsIcEENS_9allocatorIcEEEEbxydS8_NS2_14adl_serializerENS0_IhNS8_IhEEEEEENS8_ISE_EEE24__emplace_back_slow_pathIJRxEEEPSE_DpOT_, symObjAddr: 0x10B3C, symBinAddr: 0x28EE0, symSize: 0x110 }
  - { offset: 0x2064E1, size: 0x8, addend: 0x0, symName: __ZNSt3__16vectorIN8nlohmann16json_abi_v3_11_210basic_jsonINS_3mapES0_NS_12basic_stringIcNS_11char_traitsIcEENS_9allocatorIcEEEEbxydS8_NS2_14adl_serializerENS0_IhNS8_IhEEEEEENS8_ISE_EEE24__emplace_back_slow_pathIJRSA_EEEPSE_DpOT_, symObjAddr: 0x10E6C, symBinAddr: 0x29210, symSize: 0x1D0 }
  - { offset: 0x206EF9, size: 0x8, addend: 0x0, symName: __ZNSt3__16vectorIN8nlohmann16json_abi_v3_11_210basic_jsonINS_3mapES0_NS_12basic_stringIcNS_11char_traitsIcEENS_9allocatorIcEEEEbxydS8_NS2_14adl_serializerENS0_IhNS8_IhEEEEEENS8_ISE_EEE24__emplace_back_slow_pathIJRyEEEPSE_DpOT_, symObjAddr: 0x11158, symBinAddr: 0x294FC, symSize: 0x110 }
  - { offset: 0x207EE3, size: 0x8, addend: 0x0, symName: __ZN8nlohmann16json_abi_v3_11_26detail10serializerINS0_10basic_jsonINSt3__13mapENS4_6vectorENS4_12basic_stringIcNS4_11char_traitsIcEENS4_9allocatorIcEEEEbxydSA_NS0_14adl_serializerENS6_IhNSA_IhEEEEEEE12dump_escapedERKSC_b, symObjAddr: 0x126E0, symBinAddr: 0x2A9C4, symSize: 0x54C }
  - { offset: 0x208946, size: 0x8, addend: 0x0, symName: __ZNSt3__120__shared_ptr_emplaceIN8nlohmann16json_abi_v3_11_26detail21output_string_adapterIcNS_12basic_stringIcNS_11char_traitsIcEENS_9allocatorIcEEEEEENS8_ISB_EEED1Ev, symObjAddr: 0x12688, symBinAddr: 0x2A96C, symSize: 0x10 }
  - { offset: 0x208968, size: 0x8, addend: 0x0, symName: __ZNSt3__120__shared_ptr_emplaceIN8nlohmann16json_abi_v3_11_26detail21output_string_adapterIcNS_12basic_stringIcNS_11char_traitsIcEENS_9allocatorIcEEEEEENS8_ISB_EEED1Ev, symObjAddr: 0x12688, symBinAddr: 0x2A96C, symSize: 0x10 }
  - { offset: 0x20899E, size: 0x8, addend: 0x0, symName: __ZNSt3__120__shared_ptr_emplaceIN8nlohmann16json_abi_v3_11_26detail21output_string_adapterIcNS_12basic_stringIcNS_11char_traitsIcEENS_9allocatorIcEEEEEENS8_ISB_EEED0Ev, symObjAddr: 0x12698, symBinAddr: 0x2A97C, symSize: 0x20 }
  - { offset: 0x208A8B, size: 0x8, addend: 0x0, symName: __ZNSt3__120__shared_ptr_emplaceIN8nlohmann16json_abi_v3_11_26detail21output_string_adapterIcNS_12basic_stringIcNS_11char_traitsIcEENS_9allocatorIcEEEEEENS8_ISB_EEE16__on_zero_sharedEv, symObjAddr: 0x126B8, symBinAddr: 0x2A99C, symSize: 0xC }
  - { offset: 0x208AB4, size: 0x8, addend: 0x0, symName: __ZNSt3__120__shared_ptr_emplaceIN8nlohmann16json_abi_v3_11_26detail21output_string_adapterIcNS_12basic_stringIcNS_11char_traitsIcEENS_9allocatorIcEEEEEENS8_ISB_EEE16__on_zero_sharedEv, symObjAddr: 0x126B8, symBinAddr: 0x2A99C, symSize: 0xC }
  - { offset: 0x208AD2, size: 0x8, addend: 0x0, symName: __ZNSt3__120__shared_ptr_emplaceIN8nlohmann16json_abi_v3_11_26detail21output_string_adapterIcNS_12basic_stringIcNS_11char_traitsIcEENS_9allocatorIcEEEEEENS8_ISB_EEE16__on_zero_sharedEv, symObjAddr: 0x126B8, symBinAddr: 0x2A99C, symSize: 0xC }
  - { offset: 0x208AF0, size: 0x8, addend: 0x0, symName: __ZNSt3__120__shared_ptr_emplaceIN8nlohmann16json_abi_v3_11_26detail21output_string_adapterIcNS_12basic_stringIcNS_11char_traitsIcEENS_9allocatorIcEEEEEENS8_ISB_EEE16__on_zero_sharedEv, symObjAddr: 0x126B8, symBinAddr: 0x2A99C, symSize: 0xC }
  - { offset: 0x208B73, size: 0x8, addend: 0x0, symName: __ZNSt3__120__shared_ptr_emplaceIN8nlohmann16json_abi_v3_11_26detail21output_string_adapterIcNS_12basic_stringIcNS_11char_traitsIcEENS_9allocatorIcEEEEEENS8_ISB_EEE21__on_zero_shared_weakEv, symObjAddr: 0x126C4, symBinAddr: 0x2A9A8, symSize: 0x4 }
  - { offset: 0x208BA7, size: 0x8, addend: 0x0, symName: __ZNSt3__120__shared_ptr_emplaceIN8nlohmann16json_abi_v3_11_26detail21output_string_adapterIcNS_12basic_stringIcNS_11char_traitsIcEENS_9allocatorIcEEEEEENS8_ISB_EEE21__on_zero_shared_weakEv, symObjAddr: 0x126C4, symBinAddr: 0x2A9A8, symSize: 0x4 }
  - { offset: 0x208BC9, size: 0x8, addend: 0x0, symName: __ZNSt3__120__shared_ptr_emplaceIN8nlohmann16json_abi_v3_11_26detail21output_string_adapterIcNS_12basic_stringIcNS_11char_traitsIcEENS_9allocatorIcEEEEEENS8_ISB_EEE21__on_zero_shared_weakEv, symObjAddr: 0x126C4, symBinAddr: 0x2A9A8, symSize: 0x4 }
  - { offset: 0x208BEB, size: 0x8, addend: 0x0, symName: __ZNSt3__120__shared_ptr_emplaceIN8nlohmann16json_abi_v3_11_26detail21output_string_adapterIcNS_12basic_stringIcNS_11char_traitsIcEENS_9allocatorIcEEEEEENS8_ISB_EEE21__on_zero_shared_weakEv, symObjAddr: 0x126C4, symBinAddr: 0x2A9A8, symSize: 0x4 }
  - { offset: 0x208C17, size: 0x8, addend: 0x0, symName: __ZNSt3__120__shared_ptr_emplaceIN8nlohmann16json_abi_v3_11_26detail21output_string_adapterIcNS_12basic_stringIcNS_11char_traitsIcEENS_9allocatorIcEEEEEENS8_ISB_EEE21__on_zero_shared_weakEv, symObjAddr: 0x126C4, symBinAddr: 0x2A9A8, symSize: 0x4 }
  - { offset: 0x208C3E, size: 0x8, addend: 0x0, symName: __ZNSt3__120__shared_ptr_emplaceIN8nlohmann16json_abi_v3_11_26detail21output_string_adapterIcNS_12basic_stringIcNS_11char_traitsIcEENS_9allocatorIcEEEEEENS8_ISB_EEE21__on_zero_shared_weakEv, symObjAddr: 0x126C4, symBinAddr: 0x2A9A8, symSize: 0x4 }
  - { offset: 0x208C69, size: 0x8, addend: 0x0, symName: __ZN8nlohmann16json_abi_v3_11_26detail21output_string_adapterIcNSt3__112basic_stringIcNS3_11char_traitsIcEENS3_9allocatorIcEEEEE15write_characterEc, symObjAddr: 0x126C8, symBinAddr: 0x2A9AC, symSize: 0x8 }
  - { offset: 0x208C9E, size: 0x8, addend: 0x0, symName: __ZN8nlohmann16json_abi_v3_11_26detail21output_string_adapterIcNSt3__112basic_stringIcNS3_11char_traitsIcEENS3_9allocatorIcEEEEE16write_charactersEPKcm, symObjAddr: 0x126D0, symBinAddr: 0x2A9B4, symSize: 0x8 }
  - { offset: 0x208CE1, size: 0x8, addend: 0x0, symName: __ZN8nlohmann16json_abi_v3_11_26detail21output_string_adapterIcNSt3__112basic_stringIcNS3_11char_traitsIcEENS3_9allocatorIcEEEEED1Ev, symObjAddr: 0x126D8, symBinAddr: 0x2A9BC, symSize: 0x4 }
  - { offset: 0x208D0C, size: 0x8, addend: 0x0, symName: __ZN8nlohmann16json_abi_v3_11_26detail21output_string_adapterIcNSt3__112basic_stringIcNS3_11char_traitsIcEENS3_9allocatorIcEEEEED0Ev, symObjAddr: 0x126DC, symBinAddr: 0x2A9C0, symSize: 0x4 }
  - { offset: 0x2096D1, size: 0x8, addend: 0x0, symName: __ZN9inference21InferenceRunnerParams11inout_paramIxEC2ERKNSt3__112basic_stringIcNS3_11char_traitsIcEENS3_9allocatorIcEEEERKNS3_6vectorIxNS7_IxEEEE, symObjAddr: 0x140CC, symBinAddr: 0x2BD3C, symSize: 0xF4 }
  - { offset: 0x2098D1, size: 0x8, addend: 0x0, symName: __ZN9inference21InferenceRunnerParams11inout_paramIxEC2ERKNSt3__112basic_stringIcNS3_11char_traitsIcEENS3_9allocatorIcEEEERKNS3_6vectorIxNS7_IxEEEE.cold.1, symObjAddr: 0x1E6FC, symBinAddr: 0xC554A4, symSize: 0x14 }
  - { offset: 0x2098EC, size: 0x8, addend: 0x0, symName: __ZN9inference21InferenceRunnerParams11inout_paramIxEC2ERKNSt3__112basic_stringIcNS3_11char_traitsIcEENS3_9allocatorIcEEEERKNS3_6vectorIxNS7_IxEEEE.cold.1, symObjAddr: 0x1E6FC, symBinAddr: 0xC554A4, symSize: 0x14 }
  - { offset: 0x209900, size: 0x8, addend: 0x0, symName: __ZN9inference21InferenceRunnerParams11inout_paramIxEC2ERKNSt3__112basic_stringIcNS3_11char_traitsIcEENS3_9allocatorIcEEEERKNS3_6vectorIxNS7_IxEEEE.cold.1, symObjAddr: 0x1E6FC, symBinAddr: 0xC554A4, symSize: 0x14 }
  - { offset: 0x209915, size: 0x8, addend: 0x0, symName: __ZN9inference21InferenceRunnerParams11inout_paramIxEC2ERKNSt3__112basic_stringIcNS3_11char_traitsIcEENS3_9allocatorIcEEEERKNS3_6vectorIxNS7_IxEEEE.cold.1, symObjAddr: 0x1E6FC, symBinAddr: 0xC554A4, symSize: 0x14 }
  - { offset: 0x2099ED, size: 0x8, addend: 0x0, symName: __ZNSt3__135__uninitialized_allocator_copy_implB8ne180100INS_9allocatorINS_6vectorIiNS1_IiEEEEEEPKS4_S7_PS4_EET2_RT_T0_T1_S9_, symObjAddr: 0x141D4, symBinAddr: 0x2BE30, symSize: 0x100 }
  - { offset: 0x209CBE, size: 0x8, addend: 0x0, symName: __ZNSt3__128__exception_guard_exceptionsINS_29_AllocatorDestroyRangeReverseINS_9allocatorINS_6vectorIiNS2_IiEEEEEEPS5_EEED1B8ne180100Ev, symObjAddr: 0x142D4, symBinAddr: 0x2BF30, symSize: 0x6C }
  - { offset: 0x209EEE, size: 0x8, addend: 0x0, symName: __ZN7facesdk18FaceDetectorRetinaIN9inference18InferenceRunnerORTEEC2ERKNS_18FaceDetectorParamsENSt3__110unique_ptrINS1_15InferenceRunnerIS2_EENS7_14default_deleteISA_EEEERKNS_12PriorsConfigE, symObjAddr: 0x14354, symBinAddr: 0x2BF9C, symSize: 0x190 }
  - { offset: 0x20A167, size: 0x8, addend: 0x0, symName: __ZN7facesdk12PriorsConfigC2ERKS0_, symObjAddr: 0x16ABC, symBinAddr: 0x2E704, symSize: 0x134 }
  - { offset: 0x20DB2B, size: 0x8, addend: 0x0, symName: __ZNK7facesdk18FaceDetectorRetinaIN9inference18InferenceRunnerORTEE6detectERKN2cv3MatERNSt3__16vectorINS4_5Rect_IiEENS8_9allocatorISB_EEEERNS9_INS9_INS4_6Point_IiEENSC_ISH_EEEENSC_ISJ_EEEERNS9_INS9_IfNSC_IfEEEENSC_ISO_EEEE, symObjAddr: 0x144E4, symBinAddr: 0x2C12C, symSize: 0x2448 }
  - { offset: 0x216C3C, size: 0x8, addend: 0x0, symName: __ZNSt3__16vectorIN2cv3MatENS_9allocatorIS2_EEEC1B8ne180100ESt16initializer_listIS2_E, symObjAddr: 0x16DC4, symBinAddr: 0x2EA0C, symSize: 0x10C }
  - { offset: 0x2170AF, size: 0x8, addend: 0x0, symName: __ZN9inference15InferenceRunnerINS_18InferenceRunnerORTEE3runIffEEbmRKNSt3__16vectorINS5_IT_NS4_9allocatorIS6_EEEENS7_IS9_EEEERNS5_INS5_IT0_NS7_ISE_EEEENS7_ISG_EEEE, symObjAddr: 0x16FD0, symBinAddr: 0x2EC18, symSize: 0xAC }
  - { offset: 0x2174C8, size: 0x8, addend: 0x0, symName: __ZN5Eigen15PlainObjectBaseINS_6MatrixIfLin1ELi1ELi0ELin1ELi1EEEE6resizeEll, symObjAddr: 0x1A610, symBinAddr: 0x3219C, symSize: 0xA0 }
  - { offset: 0x21765F, size: 0x8, addend: 0x0, symName: __ZN5Eigen12DenseStorageIfLin1ELin1ELin1ELi1EE6resizeElll, symObjAddr: 0x1A6B0, symBinAddr: 0x3223C, symSize: 0x90 }
  - { offset: 0x2177A9, size: 0x8, addend: 0x0, symName: __ZNK7facesdk18FaceDetectorRetinaIN9inference18InferenceRunnerORTEE14decodeLocationERKNSt3__16vectorIfNS4_9allocatorIfEEEERN5Eigen6MatrixIfLin1ELin1ELi0ELin1ELin1EEE, symObjAddr: 0x1707C, symBinAddr: 0x2ECC4, symSize: 0x5B0 }
  - { offset: 0x219CED, size: 0x8, addend: 0x0, symName: __ZNSt3__16vectorIN2cv5Rect_IdEENS_9allocatorIS3_EEE12emplace_backIJS3_EEEvDpOT_, symObjAddr: 0x1762C, symBinAddr: 0x2F274, symSize: 0x1B4 }
  - { offset: 0x21A1AB, size: 0x8, addend: 0x0, symName: __ZNSt3__16vectorIN2cv5Rect_IiEENS_9allocatorIS3_EEE9push_backB8ne180100ERKS3_, symObjAddr: 0x177E0, symBinAddr: 0x2F428, symSize: 0x19C }
  - { offset: 0x21A1FC, size: 0x8, addend: 0x0, symName: __ZNSt3__16vectorIN2cv5Rect_IiEENS_9allocatorIS3_EEE9push_backB8ne180100ERKS3_, symObjAddr: 0x177E0, symBinAddr: 0x2F428, symSize: 0x19C }
  - { offset: 0x21A705, size: 0x8, addend: 0x0, symName: __ZNK7facesdk18FaceDetectorRetinaIN9inference18InferenceRunnerORTEE15decodeLandmarksERKNSt3__16vectorIfNS4_9allocatorIfEEEERN5Eigen6MatrixIfLin1ELin1ELi0ELin1ELin1EEE, symObjAddr: 0x1797C, symBinAddr: 0x2F5C4, symSize: 0x390 }
  - { offset: 0x21A710, size: 0x8, addend: 0x0, symName: __ZNK7facesdk18FaceDetectorRetinaIN9inference18InferenceRunnerORTEE15decodeLandmarksERKNSt3__16vectorIfNS4_9allocatorIfEEEERN5Eigen6MatrixIfLin1ELin1ELi0ELin1ELin1EEE, symObjAddr: 0x1797C, symBinAddr: 0x2F5C4, symSize: 0x390 }
  - { offset: 0x21AE03, size: 0x8, addend: 0x0, symName: __ZNSt3__16vectorINS0_IN2cv6Point_IiEENS_9allocatorIS3_EEEENS4_IS6_EEE21__push_back_slow_pathIRKS6_EEPS6_OT_, symObjAddr: 0x1B22C, symBinAddr: 0x32CEC, symSize: 0x2C8 }
  - { offset: 0x21B82F, size: 0x8, addend: 0x0, symName: __ZNSt3__16vectorINS0_IfNS_9allocatorIfEEEENS1_IS3_EEE21__push_back_slow_pathIRKS3_EEPS3_OT_, symObjAddr: 0x1B574, symBinAddr: 0x32FB4, symSize: 0x20C }
  - { offset: 0x21C2C6, size: 0x8, addend: 0x0, symName: __ZNSt3__16vectorINS0_IN2cv6Point_IiEENS_9allocatorIS3_EEEENS4_IS6_EEE21__push_back_slow_pathIRKS6_EEPS6_OT_, symObjAddr: 0x1B22C, symBinAddr: 0x32CEC, symSize: 0x2C8 }
  - { offset: 0x21C379, size: 0x8, addend: 0x0, symName: __ZNSt3__16vectorIN2cv3MatENS_9allocatorIS2_EEED1B8ne180100Ev, symObjAddr: 0x17D0C, symBinAddr: 0x2F954, symSize: 0x58 }
  - { offset: 0x21C50C, size: 0x8, addend: 0x0, symName: __ZN7facesdk18FaceDetectorRetinaIN9inference18InferenceRunnerORTEED1Ev, symObjAddr: 0x1692C, symBinAddr: 0x2E574, symSize: 0xC8 }
  - { offset: 0x21CC57, size: 0x8, addend: 0x0, symName: __ZN7facesdk18FaceDetectorRetinaIN9inference18InferenceRunnerORTEED0Ev, symObjAddr: 0x169F4, symBinAddr: 0x2E63C, symSize: 0xC8 }
  - { offset: 0x21D3D5, size: 0x8, addend: 0x0, symName: __ZNSt3__16vectorINS0_IiNS_9allocatorIiEEEENS1_IS3_EEEC2ERKS5_, symObjAddr: 0x16BF0, symBinAddr: 0x2E838, symSize: 0xD4 }
  - { offset: 0x21D76C, size: 0x8, addend: 0x0, symName: __ZNSt3__16vectorINS0_IiNS_9allocatorIiEEEENS1_IS3_EEEC2ERKS5_.cold.1, symObjAddr: 0x1E758, symBinAddr: 0xC554B8, symSize: 0x60 }
  - { offset: 0x21DC41, size: 0x8, addend: 0x0, symName: __ZN9inference7mat2HWCIfEEvRKN2cv3MatERNSt3__16vectorIT_NS5_9allocatorIS7_EEEE, symObjAddr: 0x17D78, symBinAddr: 0x2F9AC, symSize: 0x170 }
  - { offset: 0x21DCFF, size: 0x8, addend: 0x0, symName: __ZNSt3__16vectorIfNS_9allocatorIfEEE18__insert_with_sizeB8ne180100INS_11__wrap_iterIPfEES7_EES7_NS5_IPKfEET_T0_l, symObjAddr: 0x18C00, symBinAddr: 0x30834, symSize: 0x3B4 }
  - { offset: 0x21E9DB, size: 0x8, addend: 0x0, symName: __ZN9inference18InferenceRunnerORT3runIfffEEbmRKNSt3__16vectorINS3_IT_NS2_9allocatorIS4_EEEENS5_IS7_EEEERKNS3_INS3_IT0_NS5_ISC_EEEENS5_ISE_EEEERNS3_INS3_IT1_NS5_ISJ_EEEENS5_ISL_EEEE, symObjAddr: 0x19134, symBinAddr: 0x30CE8, symSize: 0x444 }
  - { offset: 0x2205EC, size: 0x8, addend: 0x0, symName: __ZN9inference15InferenceRunnerINS_18InferenceRunnerORTEE3runIffEEbmRKNSt3__16vectorINS5_IT_NS4_9allocatorIS6_EEEENS7_IS9_EEEERNS5_INS5_IT0_NS7_ISE_EEEENS7_ISG_EEEE.cold.1, symObjAddr: 0x1E7B8, symBinAddr: 0xC55518, symSize: 0x48 }
  - { offset: 0x222E18, size: 0x8, addend: 0x0, symName: __ZNSt3__16vectorIN2cv3MatENS_9allocatorIS2_EEE8__appendEm, symObjAddr: 0x18284, symBinAddr: 0x2FEB8, symSize: 0x1EC }
  - { offset: 0x22352F, size: 0x8, addend: 0x0, symName: __ZN2cv16MatConstIteratorC2EPKNS_3MatE, symObjAddr: 0x18B10, symBinAddr: 0x30744, symSize: 0xF0 }
  - { offset: 0x223700, size: 0x8, addend: 0x0, symName: __ZNSt3__16vectorIfNS_9allocatorIfEEE18__insert_with_sizeB8ne180100IN2cv12MatIterator_IfEES7_EENS_11__wrap_iterIPfEENS8_IPKfEET_T0_l, symObjAddr: 0x184C0, symBinAddr: 0x300F4, symSize: 0x650 }
  - { offset: 0x224D0A, size: 0x8, addend: 0x0, symName: __ZNSt3__114__split_bufferIN2cv3MatERNS_9allocatorIS2_EEED1Ev, symObjAddr: 0x18470, symBinAddr: 0x300A4, symSize: 0x50 }
  - { offset: 0x2254DF, size: 0x8, addend: 0x0, symName: __ZNSt3__135__uninitialized_allocator_copy_implB8ne180100INS_9allocatorINS_6vectorIfNS1_IfEEEEEEPKS4_S7_PS4_EET2_RT_T0_T1_S9_, symObjAddr: 0x18FC8, symBinAddr: 0x30BE8, symSize: 0x100 }
  - { offset: 0x225D09, size: 0x8, addend: 0x0, symName: __ZNSt3__16vectorIN3Ort5ValueENS_9allocatorIS2_EEE24__emplace_back_slow_pathIJS2_EEEPS2_DpOT_, symObjAddr: 0x19C44, symBinAddr: 0x317F8, symSize: 0x1A0 }
  - { offset: 0x226337, size: 0x8, addend: 0x0, symName: __ZN9inference18InferenceRunnerORT3runIfEEbRNSt3__16vectorIN3Ort5ValueENS2_9allocatorIS5_EEEERNS3_INS3_IT_NS6_ISA_EEEENS6_ISC_EEEE, symObjAddr: 0x19578, symBinAddr: 0x3112C, symSize: 0x470 }
  - { offset: 0x227D9B, size: 0x8, addend: 0x0, symName: __ZNSt3__16vectorIN3Ort5ValueENS_9allocatorIS2_EEED1B8ne180100Ev, symObjAddr: 0x199E8, symBinAddr: 0x3159C, symSize: 0x64 }
  - { offset: 0x2288B7, size: 0x8, addend: 0x0, symName: __ZNSt3__16vectorIPKcNS_9allocatorIS2_EEE8__appendEmRKS2_, symObjAddr: 0x19DF8, symBinAddr: 0x31998, symSize: 0x264 }
  - { offset: 0x228DD8, size: 0x8, addend: 0x0, symName: __ZNSt3__16vectorIN3Ort5ValueENS_9allocatorIS2_EEE7reserveEm, symObjAddr: 0x1A070, symBinAddr: 0x31BFC, symSize: 0x178 }
  - { offset: 0x229284, size: 0x8, addend: 0x0, symName: __ZNSt3__16vectorIN3Ort5ValueENS_9allocatorIS2_EEE24__emplace_back_slow_pathIJDnEEEPS2_DpOT_, symObjAddr: 0x1A1E8, symBinAddr: 0x31D74, symSize: 0x1A8 }
  - { offset: 0x229843, size: 0x8, addend: 0x0, symName: __ZNSt3__16vectorINS0_IfNS_9allocatorIfEEEENS1_IS3_EEE24__emplace_back_slow_pathIJRPfS7_EEEPS3_DpOT_, symObjAddr: 0x1A390, symBinAddr: 0x31F1C, symSize: 0x214 }
  - { offset: 0x22A4B2, size: 0x8, addend: 0x0, symName: __ZN3Ort9ExceptionD1Ev, symObjAddr: 0x19B88, symBinAddr: 0x3173C, symSize: 0x4C }
  - { offset: 0x22A622, size: 0x8, addend: 0x0, symName: __ZN3Ort9ExceptionD0Ev, symObjAddr: 0x19BD4, symBinAddr: 0x31788, symSize: 0x54 }
  - { offset: 0x22A791, size: 0x8, addend: 0x0, symName: __ZNK3Ort9Exception4whatEv, symObjAddr: 0x19C28, symBinAddr: 0x317DC, symSize: 0x1C }
  - { offset: 0x22AA2B, size: 0x8, addend: 0x0, symName: __ZNSt3__16vectorIPKcNS_9allocatorIS2_EEE8__appendEmRKS2_, symObjAddr: 0x19DF8, symBinAddr: 0x31998, symSize: 0x264 }
  - { offset: 0x22ADF7, size: 0x8, addend: 0x0, symName: __ZNSt3__16vectorIN3Ort5ValueENS_9allocatorIS2_EEE7reserveEm, symObjAddr: 0x1A070, symBinAddr: 0x31BFC, symSize: 0x178 }
  - { offset: 0x22B12D, size: 0x8, addend: 0x0, symName: __ZNSt3__114__split_bufferINS_6vectorIfNS_9allocatorIfEEEERNS2_IS4_EEED1Ev, symObjAddr: 0x1A5A4, symBinAddr: 0x32130, symSize: 0x6C }
  - { offset: 0x22C8F9, size: 0x8, addend: 0x0, symName: __ZNSt3__16vectorINS0_IfNS_9allocatorIfEEEENS1_IS3_EEE21__push_back_slow_pathIRKS3_EEPS3_OT_, symObjAddr: 0x1B574, symBinAddr: 0x32FB4, symSize: 0x20C }
  - { offset: 0x22CA9D, size: 0x8, addend: 0x0, symName: __ZN7facesdk10ClassifierIN9inference18InferenceRunnerORTEhfED1Ev, symObjAddr: 0x1B780, symBinAddr: 0x331C0, symSize: 0x5C }
  - { offset: 0x22CC27, size: 0x8, addend: 0x0, symName: __ZN7facesdk10ClassifierIN9inference18InferenceRunnerORTEhfED0Ev, symObjAddr: 0x1B7DC, symBinAddr: 0x3321C, symSize: 0x5C }
  - { offset: 0x22D28C, size: 0x8, addend: 0x0, symName: __ZNK7facesdk10ClassifierIN9inference18InferenceRunnerORTEhfE3runERKN2cv3MatERKNSt3__16vectorINS4_6Point_IiEENS8_9allocatorISB_EEEERNS9_IfNSC_IfEEEE, symObjAddr: 0x1B838, symBinAddr: 0x33278, symSize: 0x35C }
  - { offset: 0x22E5A5, size: 0x8, addend: 0x0, symName: __ZN9inference15InferenceRunnerINS_18InferenceRunnerORTEE3runIhfEEbmRKNSt3__16vectorINS5_IT_NS4_9allocatorIS6_EEEENS7_IS9_EEEERNS5_INS5_IT0_NS7_ISE_EEEENS7_ISG_EEEE, symObjAddr: 0x1BC8C, symBinAddr: 0x336CC, symSize: 0xAC }
  - { offset: 0x22E9BE, size: 0x8, addend: 0x0, symName: __ZNSt3__16vectorIfNS_9allocatorIfEEE18__assign_with_sizeB8ne180100INS_11__wrap_iterIPKfEES8_EEvT_T0_l, symObjAddr: 0x1D214, symBinAddr: 0x347D4, symSize: 0x148 }
  - { offset: 0x22FE40, size: 0x8, addend: 0x0, symName: __ZNSt3__135__uninitialized_allocator_copy_implB8ne180100INS_9allocatorINS_6vectorIhNS1_IhEEEEEEPKS4_S7_PS4_EET2_RT_T0_T1_S9_, symObjAddr: 0x1CC68, symBinAddr: 0x34294, symSize: 0xFC }
  - { offset: 0x22FEAC, size: 0x8, addend: 0x0, symName: __ZN9inference18InferenceRunnerORT3runIhffEEbmRKNSt3__16vectorINS3_IT_NS2_9allocatorIS4_EEEENS5_IS7_EEEERKNS3_INS3_IT0_NS5_ISC_EEEENS5_ISE_EEEERNS3_INS3_IT1_NS5_ISJ_EEEENS5_ISL_EEEE, symObjAddr: 0x1CDD0, symBinAddr: 0x34390, symSize: 0x444 }
  - { offset: 0x231FE6, size: 0x8, addend: 0x0, symName: __ZNSt3__16vectorIhNS_9allocatorIhEEE18__insert_with_sizeB8ne180100IN2cv12MatIterator_IhEES7_EENS_11__wrap_iterIPhEENS8_IPKhEET_T0_l, symObjAddr: 0x1C2F4, symBinAddr: 0x33CC0, symSize: 0x5D4 }
  - { offset: 0x236073, size: 0x8, addend: 0x0, symName: _OUTLINED_FUNCTION_0, symObjAddr: 0x1E890, symBinAddr: 0x34ACC, symSize: 0xC }
  - { offset: 0x23608B, size: 0x8, addend: 0x0, symName: _OUTLINED_FUNCTION_1, symObjAddr: 0x1E89C, symBinAddr: 0x34AD8, symSize: 0xC }
  - { offset: 0x2360A3, size: 0x8, addend: 0x0, symName: _OUTLINED_FUNCTION_2, symObjAddr: 0x1E8A8, symBinAddr: 0x34AE4, symSize: 0x18 }
  - { offset: 0x2360BB, size: 0x8, addend: 0x0, symName: _OUTLINED_FUNCTION_3, symObjAddr: 0x1E8C0, symBinAddr: 0x34AFC, symSize: 0x10 }
  - { offset: 0x2360D3, size: 0x8, addend: 0x0, symName: _OUTLINED_FUNCTION_4, symObjAddr: 0x1E8D0, symBinAddr: 0x34B0C, symSize: 0x8 }
  - { offset: 0x2360EB, size: 0x8, addend: 0x0, symName: _OUTLINED_FUNCTION_5, symObjAddr: 0x1E8D8, symBinAddr: 0x34B14, symSize: 0x8 }
  - { offset: 0x2B5D2A, size: 0x8, addend: 0x0, symName: __ZN5Eigen7umeyamaINS_6MatrixIfLi2ELi5ELi0ELi2ELi5EEES2_EENS_8internal29umeyama_transform_matrix_typeIT_T0_E4typeERKNS_10MatrixBaseIS5_EERKNS9_IS6_EEb, symObjAddr: 0x46AC, symBinAddr: 0x37378, symSize: 0x4BC }
  - { offset: 0x2DCD1F, size: 0x8, addend: 0x0, symName: __ZNSt3__116__throw_bad_castB8ne180100Ev, symObjAddr: 0x73F8, symBinAddr: 0x39660, symSize: 0x28 }
  - { offset: 0x2E72B8, size: 0x8, addend: 0x0, symName: __ZN7facesdk8readFileERKNSt3__112basic_stringIcNS0_11char_traitsIcEENS0_9allocatorIcEEEE, symObjAddr: 0x48, symBinAddr: 0x34C4C, symSize: 0x2B8 }
  - { offset: 0x2E787B, size: 0x8, addend: 0x0, symName: __ZN7facesdk19serializeCurrResultERNS_15LivenessSessionEPKNS_12LFrameResultE, symObjAddr: 0x5BC, symBinAddr: 0x35078, symSize: 0x22C }
  - { offset: 0x2E7EE4, size: 0x8, addend: 0x0, symName: __ZN7facesdk16serializeSessionERNS_15LivenessSessionE, symObjAddr: 0x7E8, symBinAddr: 0x352A4, symSize: 0x334 }
  - { offset: 0x2E890C, size: 0x8, addend: 0x0, symName: __ZN7facesdk10rectToJsonIiEEN8nlohmann16json_abi_v3_11_210basic_jsonINSt3__13mapENS4_6vectorENS4_12basic_stringIcNS4_11char_traitsIcEENS4_9allocatorIcEEEEbxydSA_NS2_14adl_serializerENS6_IhNSA_IhEEEEEERKN2cv5Rect_IT_EE, symObjAddr: 0xC3C, symBinAddr: 0x355D8, symSize: 0x1F0 }
  - { offset: 0x2E915D, size: 0x8, addend: 0x0, symName: __ZN7facesdk17generateDebugInfoERKNS_12LFrameResultERKNS_15LivenessSessionE, symObjAddr: 0xE2C, symBinAddr: 0x357C8, symSize: 0x190 }
  - { offset: 0x2E9564, size: 0x8, addend: 0x0, symName: __ZN7facesdk17frameResultToJsonERKNS_12LFrameResultE, symObjAddr: 0x12A8, symBinAddr: 0x35958, symSize: 0x3AC }
  - { offset: 0x2EA173, size: 0x8, addend: 0x0, symName: __ZN7facesdk13ellipseToJsonERKNS_8LEllipseE, symObjAddr: 0x1654, symBinAddr: 0x35D04, symSize: 0x208 }
  - { offset: 0x2EA9D7, size: 0x8, addend: 0x0, symName: __ZN7facesdk11pointToJsonIiEEN8nlohmann16json_abi_v3_11_210basic_jsonINSt3__13mapENS4_6vectorENS4_12basic_stringIcNS4_11char_traitsIcEENS4_9allocatorIcEEEEbxydSA_NS2_14adl_serializerENS6_IhNSA_IhEEEEEERKN2cv6Point_IT_EE, symObjAddr: 0x185C, symBinAddr: 0x35F0C, symSize: 0x110 }
  - { offset: 0x2EAE70, size: 0x8, addend: 0x0, symName: __ZN7facesdk10faceToJsonERKNS_5LFaceE, symObjAddr: 0x1ACC, symBinAddr: 0x3601C, symSize: 0x21C }
  - { offset: 0x2EB446, size: 0x8, addend: 0x0, symName: __ZN7facesdk21faceOrientationToJsonENS_15LFaceOrienationE, symObjAddr: 0x1CE8, symBinAddr: 0x36238, symSize: 0x18C }
  - { offset: 0x2EBA6A, size: 0x8, addend: 0x0, symName: __ZN7facesdk7calcFPSERKNS_15LivenessSessionE, symObjAddr: 0x2504, symBinAddr: 0x363C4, symSize: 0x13C }
  - { offset: 0x2EBB84, size: 0x8, addend: 0x0, symName: __ZN7facesdk6centerERKN2cv5Rect_IiEE, symObjAddr: 0x26A0, symBinAddr: 0x36500, symSize: 0x1C }
  - { offset: 0x2EBBA2, size: 0x8, addend: 0x0, symName: __ZN7facesdk6centerERKN2cv5Rect_IiEE, symObjAddr: 0x26A0, symBinAddr: 0x36500, symSize: 0x1C }
  - { offset: 0x2EBC55, size: 0x8, addend: 0x0, symName: __ZN7facesdk15saveImageBase64ERKN2cv3MatERKNSt3__112basic_stringIcNS4_11char_traitsIcEENS4_9allocatorIcEEEERKNS4_6vectorIiNS8_IiEEEE, symObjAddr: 0x280C, symBinAddr: 0x3651C, symSize: 0xF8 }
  - { offset: 0x2EC19B, size: 0x8, addend: 0x0, symName: __ZN7facesdk9saveImageERKN2cv3MatERKNSt3__112basic_stringIcNS4_11char_traitsIcEENS4_9allocatorIcEEEERKNS4_6vectorIiNS8_IiEEEE, symObjAddr: 0x2904, symBinAddr: 0x36614, symSize: 0x6C }
  - { offset: 0x2EC3DD, size: 0x8, addend: 0x0, symName: __ZN7facesdk11rotateImageERKN2cv3MatEi, symObjAddr: 0x29B0, symBinAddr: 0x366C0, symSize: 0xF8 }
  - { offset: 0x2EC6E7, size: 0x8, addend: 0x0, symName: __ZN7facesdk11createFrameEPvN2cv5Size_IiEEii, symObjAddr: 0x2AA8, symBinAddr: 0x367B8, symSize: 0xF8 }
  - { offset: 0x2EC955, size: 0x8, addend: 0x0, symName: __ZN7facesdk17findBestFaceIndexERKNSt3__16vectorIN2cv5Rect_IiEENS0_9allocatorIS4_EEEERKNS2_5Size_IiEE, symObjAddr: 0x2C94, symBinAddr: 0x368B0, symSize: 0x180 }
  - { offset: 0x2EC9EA, size: 0x8, addend: 0x0, symName: __ZN7facesdk17findBestFaceIndexERKNSt3__16vectorIN2cv5Rect_IiEENS0_9allocatorIS4_EEEERKNS2_5Size_IiEE, symObjAddr: 0x2C94, symBinAddr: 0x368B0, symSize: 0x180 }
  - { offset: 0x2ECDF5, size: 0x8, addend: 0x0, symName: __ZN7facesdk11calcFaceBoxERKN2cv5Size_IiEERKNS0_6Point_IiEERKNS_15LStageConstantsE, symObjAddr: 0x3594, symBinAddr: 0x36A68, symSize: 0x28 }
  - { offset: 0x2ECEA5, size: 0x8, addend: 0x0, symName: __ZN7facesdk11calcEllipseERKN2cv5Rect_IiEERKNS0_6Point_IiEERKNS_15LStageConstantsE, symObjAddr: 0x35BC, symBinAddr: 0x36A90, symSize: 0x20 }
  - { offset: 0x2ECF52, size: 0x8, addend: 0x0, symName: __ZN7facesdk16getHeightOnFrameEfiff, symObjAddr: 0x3614, symBinAddr: 0x36AB0, symSize: 0x8C }
  - { offset: 0x2ED0D5, size: 0x8, addend: 0x0, symName: __ZN7facesdk8calcBallERKNS_14LSessionParamsENS_15LFaceOrienationE, symObjAddr: 0x3DCC, symBinAddr: 0x36B3C, symSize: 0x44 }
  - { offset: 0x2ED1C4, size: 0x8, addend: 0x0, symName: __ZN7facesdk15calcCroppedFaceERKN2cv3MatERKNSt3__16vectorINS0_6Point_IiEENS4_9allocatorIS7_EEEERKNS5_INS6_IdEENS8_ISD_EEEERKNS0_5Size_IiEE, symObjAddr: 0x3EB4, symBinAddr: 0x36B80, symSize: 0x7F8 }
  - { offset: 0x2EE6BD, size: 0x8, addend: 0x0, symName: __ZN7facesdk15calcCroppedFaceERKN2cv3MatERKNSt3__16vectorINS0_6Point_IiEENS4_9allocatorIS7_EEEE, symObjAddr: 0x4B68, symBinAddr: 0x37834, symSize: 0x190 }
  - { offset: 0x2EED42, size: 0x8, addend: 0x0, symName: __ZN7facesdk16correctReadinessEf, symObjAddr: 0x504C, symBinAddr: 0x379C4, symSize: 0xA4 }
  - { offset: 0x2EEDA3, size: 0x8, addend: 0x0, symName: __ZN7facesdk18calcLandmarkHeightERKNS_5LFaceE, symObjAddr: 0x50F0, symBinAddr: 0x37A68, symSize: 0xC8 }
  - { offset: 0x2EEF20, size: 0x8, addend: 0x0, symName: __ZN7facesdk17calcCurrentSectorERKN2cv6Point_IiEERKNS_14LSessionParamsEj, symObjAddr: 0x51B8, symBinAddr: 0x37B30, symSize: 0x134 }
  - { offset: 0x2EF02C, size: 0x8, addend: 0x0, symName: __ZN7facesdk14calcFaceHeightERKNSt3__16vectorIN2cv6Point_IiEENS0_9allocatorIS4_EEEE, symObjAddr: 0x52EC, symBinAddr: 0x37C64, symSize: 0xA0 }
  - { offset: 0x2EF0A7, size: 0x8, addend: 0x0, symName: __ZN7facesdk14calcFaceHeightERKNSt3__16vectorIN2cv6Point_IiEENS0_9allocatorIS4_EEEE, symObjAddr: 0x52EC, symBinAddr: 0x37C64, symSize: 0xA0 }
  - { offset: 0x2EF2A2, size: 0x8, addend: 0x0, symName: __ZN7facesdk17serializeDepthMapERKN2cv3MatERKNS0_5Size_IiEERKNS0_5Rect_IiEEjb, symObjAddr: 0x538C, symBinAddr: 0x37D04, symSize: 0x498 }
  - { offset: 0x2F0B05, size: 0x8, addend: 0x0, symName: __ZN7facesdk12compressDataEPKhmRKNSt3__112basic_stringIcNS2_11char_traitsIcEENS2_9allocatorIcEEEE, symObjAddr: 0x5824, symBinAddr: 0x3819C, symSize: 0x148 }
  - { offset: 0x2F0F9A, size: 0x8, addend: 0x0, symName: __ZN7facesdk13calcSharpnessERKN2cv3MatE, symObjAddr: 0x5FA4, symBinAddr: 0x3844C, symSize: 0x184 }
  - { offset: 0x2F14B4, size: 0x8, addend: 0x0, symName: __ZN7facesdk8getValueERKN8nlohmann16json_abi_v3_11_210basic_jsonINSt3__13mapENS3_6vectorENS3_12basic_stringIcNS3_11char_traitsIcEENS3_9allocatorIcEEEEbxydS9_NS1_14adl_serializerENS5_IhNS9_IhEEEEEERKSB_SH_, symObjAddr: 0x6128, symBinAddr: 0x385D0, symSize: 0x60 }
  - { offset: 0x2F15AC, size: 0x8, addend: 0x0, symName: __ZN7facesdk7isEmptyEPKc, symObjAddr: 0x63C8, symBinAddr: 0x38630, symSize: 0x1C }
  - { offset: 0x2F15DB, size: 0x8, addend: 0x0, symName: __ZN7facesdk21generateFakePublicKeyEv, symObjAddr: 0x63E4, symBinAddr: 0x3864C, symSize: 0x1CC }
  - { offset: 0x2F2172, size: 0x8, addend: 0x0, symName: __ZN7facesdk20generateRandomNumberIhEET_S1_S1_, symObjAddr: 0xE970, symBinAddr: 0x3A9F4, symSize: 0x118 }
  - { offset: 0x2F281C, size: 0x8, addend: 0x0, symName: __ZN7facesdk10calcSHA256ERKNSt3__16vectorIhNS0_9allocatorIhEEEE, symObjAddr: 0x65B0, symBinAddr: 0x38818, symSize: 0xD8 }
  - { offset: 0x2FF27F, size: 0x8, addend: 0x0, symName: __ZNSt3__124uniform_int_distributionIhEclINS_23mersenne_twister_engineIjLm32ELm624ELm397ELm31ELj2567483615ELm11ELj4294967295ELm7ELj2636928640ELm15ELj4022730752ELm18ELj1812433253EEEEEhRT_RKNS1_10param_typeE, symObjAddr: 0xEA88, symBinAddr: 0x3AB0C, symSize: 0x1AC }
  - { offset: 0x2FF321, size: 0x8, addend: 0x0, symName: __ZNSt3__124uniform_int_distributionIhEclINS_23mersenne_twister_engineIjLm32ELm624ELm397ELm31ELj2567483615ELm11ELj4294967295ELm7ELj2636928640ELm15ELj4022730752ELm18ELj1812433253EEEEEhRT_RKNS1_10param_typeE, symObjAddr: 0xEA88, symBinAddr: 0x3AB0C, symSize: 0x1AC }
  - { offset: 0x2FF5C5, size: 0x8, addend: 0x0, symName: __ZNK7facesdk15LFaceOrienationltES0_, symObjAddr: 0x0, symBinAddr: 0x34C04, symSize: 0x48 }
  - { offset: 0x2FFB36, size: 0x8, addend: 0x0, symName: __ZNSt3__113basic_filebufIcNS_11char_traitsIcEEEC2Ev, symObjAddr: 0x83C4, symBinAddr: 0x39834, symSize: 0x138 }
  - { offset: 0x2FFC12, size: 0x8, addend: 0x0, symName: __ZNSt3__114basic_ifstreamIcNS_11char_traitsIcEEEC1ERKNS_12basic_stringIcS2_NS_9allocatorIcEEEEj, symObjAddr: 0x300, symBinAddr: 0x34F04, symSize: 0x114 }
  - { offset: 0x2FFE0F, size: 0x8, addend: 0x0, symName: __ZNSt3__113basic_filebufIcNS_11char_traitsIcEEE4swapERS3_, symObjAddr: 0x8634, symBinAddr: 0x39AA4, symSize: 0x3A0 }
  - { offset: 0x30041B, size: 0x8, addend: 0x0, symName: __ZNSt3__113basic_filebufIcNS_11char_traitsIcEEED2Ev, symObjAddr: 0x67B4, symBinAddr: 0x38A1C, symSize: 0xBC }
  - { offset: 0x300525, size: 0x8, addend: 0x0, symName: __ZNSt3__16vectorIhNS_9allocatorIhEEE20__init_with_sentinelB8ne180100INS_19istreambuf_iteratorIcNS_11char_traitsIcEEEES8_EEvT_T0_, symObjAddr: 0x89D4, symBinAddr: 0x39E44, symSize: 0x2D4 }
  - { offset: 0x300B9D, size: 0x8, addend: 0x0, symName: __ZNSt3__114basic_ifstreamIcNS_11char_traitsIcEEED1Ev, symObjAddr: 0x414, symBinAddr: 0x35018, symSize: 0x60 }
  - { offset: 0x300CE1, size: 0x8, addend: 0x0, symName: __ZNSt3__113basic_filebufIcNS_11char_traitsIcEEE4openEPKcj, symObjAddr: 0x84FC, symBinAddr: 0x3996C, symSize: 0x138 }
  - { offset: 0x307E3B, size: 0x8, addend: 0x0, symName: __ZN6common6base647EncoderD1Ev, symObjAddr: 0x2970, symBinAddr: 0x36680, symSize: 0x40 }
  - { offset: 0x3082F8, size: 0x8, addend: 0x0, symName: __ZN2cv7MatExprD1Ev, symObjAddr: 0x2FF0, symBinAddr: 0x36A30, symSize: 0x38 }
  - { offset: 0x30B87A, size: 0x8, addend: 0x0, symName: __ZN5Eigen9JacobiSVDINS_6MatrixIfLi2ELi2ELi0ELi2ELi2EEELi2EE7computeERKS2_j, symObjAddr: 0xD45C, symBinAddr: 0x3A118, symSize: 0x6B8 }
  - { offset: 0x30EA59, size: 0x8, addend: 0x0, symName: __ZN8nlohmann16json_abi_v3_11_210basic_jsonINSt3__13mapENS2_6vectorENS2_12basic_stringIcNS2_11char_traitsIcEENS2_9allocatorIcEEEEbxydS8_NS0_14adl_serializerENS4_IhNS8_IhEEEEE6binaryERKSD_, symObjAddr: 0x5A1C, symBinAddr: 0x382E4, symSize: 0xDC }
  - { offset: 0x30F4EE, size: 0x8, addend: 0x0, symName: __ZNKSt3__111__copy_loopINS_17_ClassicAlgPolicyEEclB8ne180100IPhS4_NS_20back_insert_iteratorINS_6vectorIhNS_9allocatorIhEEEEEEEENS_4pairIT_T1_EESC_T0_SD_, symObjAddr: 0xE174, symBinAddr: 0x3A7D0, symSize: 0x224 }
  - { offset: 0x30FE37, size: 0x8, addend: 0x0, symName: __ZNSt3__119basic_ostringstreamIcNS_11char_traitsIcEENS_9allocatorIcEEED1Ev, symObjAddr: 0x5F18, symBinAddr: 0x383C0, symSize: 0x8C }
  - { offset: 0x31128B, size: 0x8, addend: 0x0, symName: __ZTv0_n24_NSt3__114basic_ifstreamIcNS_11char_traitsIcEEED1Ev, symObjAddr: 0x6688, symBinAddr: 0x388F0, symSize: 0x60 }
  - { offset: 0x311315, size: 0x8, addend: 0x0, symName: __ZNSt3__114basic_ifstreamIcNS_11char_traitsIcEEED0Ev, symObjAddr: 0x66E8, symBinAddr: 0x38950, symSize: 0x60 }
  - { offset: 0x3113BE, size: 0x8, addend: 0x0, symName: __ZTv0_n24_NSt3__114basic_ifstreamIcNS_11char_traitsIcEEED0Ev, symObjAddr: 0x6748, symBinAddr: 0x389B0, symSize: 0x68 }
  - { offset: 0x311464, size: 0x8, addend: 0x0, symName: __ZNSt3__113basic_filebufIcNS_11char_traitsIcEEED1Ev, symObjAddr: 0x67B0, symBinAddr: 0x38A18, symSize: 0x4 }
  - { offset: 0x311487, size: 0x8, addend: 0x0, symName: __ZNSt3__113basic_filebufIcNS_11char_traitsIcEEED1Ev, symObjAddr: 0x67B0, symBinAddr: 0x38A18, symSize: 0x4 }
  - { offset: 0x31149A, size: 0x8, addend: 0x0, symName: __ZNSt3__113basic_filebufIcNS_11char_traitsIcEEE4syncEv, symObjAddr: 0x6C6C, symBinAddr: 0x38ED4, symSize: 0x26C }
  - { offset: 0x31175A, size: 0x8, addend: 0x0, symName: __ZNSt3__113basic_filebufIcNS_11char_traitsIcEEE9underflowEv, symObjAddr: 0x6ED8, symBinAddr: 0x39140, symSize: 0x2B4 }
  - { offset: 0x311765, size: 0x8, addend: 0x0, symName: __ZNSt3__113basic_filebufIcNS_11char_traitsIcEEED0Ev, symObjAddr: 0x6870, symBinAddr: 0x38AD8, symSize: 0x14 }
  - { offset: 0x311814, size: 0x8, addend: 0x0, symName: __ZNSt3__113basic_filebufIcNS_11char_traitsIcEEE5imbueERKNS_6localeE, symObjAddr: 0x6884, symBinAddr: 0x38AEC, symSize: 0xFC }
  - { offset: 0x3118E5, size: 0x8, addend: 0x0, symName: __ZNSt3__113basic_filebufIcNS_11char_traitsIcEEE6setbufEPcl, symObjAddr: 0x6980, symBinAddr: 0x38BE8, symSize: 0x120 }
  - { offset: 0x3119C2, size: 0x8, addend: 0x0, symName: __ZNSt3__113basic_filebufIcNS_11char_traitsIcEEE7seekoffExNS_8ios_base7seekdirEj, symObjAddr: 0x6AA0, symBinAddr: 0x38D08, symSize: 0x110 }
  - { offset: 0x311B19, size: 0x8, addend: 0x0, symName: __ZNSt3__113basic_filebufIcNS_11char_traitsIcEEE7seekposENS_4fposI11__mbstate_tEEj, symObjAddr: 0x6BB0, symBinAddr: 0x38E18, symSize: 0xBC }
  - { offset: 0x311B7A, size: 0x8, addend: 0x0, symName: __ZNSt3__113basic_filebufIcNS_11char_traitsIcEEE7seekposENS_4fposI11__mbstate_tEEj, symObjAddr: 0x6BB0, symBinAddr: 0x38E18, symSize: 0xBC }
  - { offset: 0x311DF3, size: 0x8, addend: 0x0, symName: __ZNSt3__113basic_filebufIcNS_11char_traitsIcEEE9underflowEv, symObjAddr: 0x6ED8, symBinAddr: 0x39140, symSize: 0x2B4 }
  - { offset: 0x312156, size: 0x8, addend: 0x0, symName: __ZNSt3__113basic_filebufIcNS_11char_traitsIcEEE9pbackfailEi, symObjAddr: 0x718C, symBinAddr: 0x393F4, symSize: 0x5C }
  - { offset: 0x3121A3, size: 0x8, addend: 0x0, symName: __ZNSt3__113basic_filebufIcNS_11char_traitsIcEEE9pbackfailEi, symObjAddr: 0x718C, symBinAddr: 0x393F4, symSize: 0x5C }
  - { offset: 0x312321, size: 0x8, addend: 0x0, symName: __ZNSt3__113basic_filebufIcNS_11char_traitsIcEEE8overflowEi, symObjAddr: 0x71E8, symBinAddr: 0x39450, symSize: 0x210 }
  - { offset: 0x3126D4, size: 0x8, addend: 0x0, symName: __ZTv0_n24_NSt3__119basic_ostringstreamIcNS_11char_traitsIcEENS_9allocatorIcEEED1Ev, symObjAddr: 0x7420, symBinAddr: 0x39688, symSize: 0x8C }
  - { offset: 0x31287A, size: 0x8, addend: 0x0, symName: __ZNSt3__119basic_ostringstreamIcNS_11char_traitsIcEENS_9allocatorIcEEED0Ev, symObjAddr: 0x74AC, symBinAddr: 0x39714, symSize: 0x8C }
  - { offset: 0x312A45, size: 0x8, addend: 0x0, symName: __ZTv0_n24_NSt3__119basic_ostringstreamIcNS_11char_traitsIcEENS_9allocatorIcEEED0Ev, symObjAddr: 0x7538, symBinAddr: 0x397A0, symSize: 0x94 }
  - { offset: 0x31C292, size: 0x8, addend: 0x0, symName: __ZN5boost16exception_detail20copy_boost_exceptionEPNS_9exceptionEPKS1_, symObjAddr: 0x1AAC, symBinAddr: 0x329848, symSize: 0x138 }
  - { offset: 0x325C1B, size: 0x8, addend: 0x0, symName: __ZN5boost16exception_detail10clone_baseD1Ev, symObjAddr: 0x19CC, symBinAddr: 0xC55950, symSize: 0x4 }
  - { offset: 0x325C23, size: 0x8, addend: 0x0, symName: __ZN5boost16exception_detail10clone_baseD0Ev, symObjAddr: 0x19D0, symBinAddr: 0xC55954, symSize: 0x4 }
  - { offset: 0x325C52, size: 0x8, addend: 0x0, symName: __ZN5boost16exception_detail10clone_baseD0Ev, symObjAddr: 0x19D0, symBinAddr: 0xC55954, symSize: 0x4 }
  - { offset: 0x325F42, size: 0x8, addend: 0x0, symName: __ZNSt3__112basic_stringIwNS_11char_traitsIwEENS_9allocatorIwEEE25__init_copy_ctor_externalEPKwm, symObjAddr: 0x1D20, symBinAddr: 0x329980, symSize: 0xA0 }
  - { offset: 0x32640F, size: 0x8, addend: 0x0, symName: __ZN5boost6detail15sp_counted_base7destroyEv, symObjAddr: 0x1F0C, symBinAddr: 0x329A20, symSize: 0x14 }
  - { offset: 0x32A53B, size: 0x8, addend: 0x0, symName: __ZN5boost16exception_detail37exception_ptr_static_exception_objectINS0_10bad_alloc_EE1eE, symObjAddr: 0x99C0, symBinAddr: 0xEB4EC0, symSize: 0x0 }
  - { offset: 0x32A6DC, size: 0x8, addend: 0x0, symName: __ZN5boost16exception_detail37exception_ptr_static_exception_objectINS0_14bad_exception_EE1eE, symObjAddr: 0x99D8, symBinAddr: 0xEB4ED8, symSize: 0x0 }
  - { offset: 0x32A798, size: 0x8, addend: 0x0, symName: __ZN5boost16exception_detail27get_static_exception_objectINS0_10bad_alloc_EEENS_13exception_ptrEv, symObjAddr: 0x2A6C, symBinAddr: 0xB58DE8, symSize: 0x290 }
  - { offset: 0x32A7A0, size: 0x8, addend: 0x0, symName: __ZN5boost13exception_ptrD1Ev, symObjAddr: 0x2CFC, symBinAddr: 0xB59078, symSize: 0x74 }
  - { offset: 0x32A7D1, size: 0x8, addend: 0x0, symName: __ZZN5boost16exception_detail27get_static_exception_objectINS0_10bad_alloc_EEENS_13exception_ptrEvE2ep, symObjAddr: 0x9A28, symBinAddr: 0xEB4EF0, symSize: 0x0 }
  - { offset: 0x32B052, size: 0x8, addend: 0x0, symName: __ZN5boost16exception_detail27get_static_exception_objectINS0_14bad_exception_EEENS_13exception_ptrEv, symObjAddr: 0x2D70, symBinAddr: 0xB590EC, symSize: 0x250 }
  - { offset: 0x32B05A, size: 0x8, addend: 0x0, symName: __ZN5boost6detail17shared_state_base22mark_finished_internalERNS_11unique_lockINS_5mutexEEE, symObjAddr: 0x2FC0, symBinAddr: 0xB5933C, symSize: 0xD4 }
  - { offset: 0x32B08B, size: 0x8, addend: 0x0, symName: __ZZN5boost16exception_detail27get_static_exception_objectINS0_14bad_exception_EEENS_13exception_ptrEvE2ep, symObjAddr: 0x9A40, symBinAddr: 0xEB4F08, symSize: 0x0 }
  - { offset: 0x32C6F5, size: 0x8, addend: 0x0, symName: __MergedGlobals, symObjAddr: 0xBBC80, symBinAddr: 0xF5C670, symSize: 0x0 }
  - { offset: 0x32C713, size: 0x8, addend: 0x0, symName: __MergedGlobals, symObjAddr: 0xBBC80, symBinAddr: 0xF5C670, symSize: 0x0 }
  - { offset: 0x32DAF2, size: 0x8, addend: 0x0, symName: __ZN5boost6detail23get_current_thread_dataEv, symObjAddr: 0x3AC, symBinAddr: 0xB56950, symSize: 0x7C }
  - { offset: 0x32DAFA, size: 0x8, addend: 0x0, symName: __ZN5boost6detail23set_current_thread_dataEPNS0_16thread_data_baseE, symObjAddr: 0x428, symBinAddr: 0xB569CC, symSize: 0x84 }
  - { offset: 0x32DB76, size: 0x8, addend: 0x0, symName: __ZN5boost6detail23set_current_thread_dataEPNS0_16thread_data_baseE, symObjAddr: 0x428, symBinAddr: 0xB569CC, symSize: 0x84 }
  - { offset: 0x32DF7D, size: 0x8, addend: 0x0, symName: __ZN5boost6detail24add_thread_exit_functionEPNS0_25thread_exit_function_baseE, symObjAddr: 0x2260, symBinAddr: 0xB58720, symSize: 0x84 }
  - { offset: 0x32E180, size: 0x8, addend: 0x0, symName: __ZN5boost6detail12get_tss_dataEPKv, symObjAddr: 0x2358, symBinAddr: 0xB587A4, symSize: 0x84 }
  - { offset: 0x32E188, size: 0x8, addend: 0x0, symName: __ZN5boost6detail16add_new_tss_nodeEPKvPFvPFvPvES3_ES5_S3_, symObjAddr: 0x23DC, symBinAddr: 0xB58828, symSize: 0x130 }
  - { offset: 0x32E3B5, size: 0x8, addend: 0x0, symName: __ZN5boost6detail16add_new_tss_nodeEPKvPFvPFvPvES3_ES5_S3_, symObjAddr: 0x23DC, symBinAddr: 0xB58828, symSize: 0x130 }
  - { offset: 0x32E898, size: 0x8, addend: 0x0, symName: __ZN5boost6detail12set_tss_dataEPKvPFvPFvPvES3_ES5_S3_b, symObjAddr: 0x25DC, symBinAddr: 0xB58958, symSize: 0x1A8 }
  - { offset: 0x32E8A0, size: 0x8, addend: 0x0, symName: __ZN5boost25notify_all_at_thread_exitERNS_18condition_variableENS_11unique_lockINS_5mutexEEE, symObjAddr: 0x2784, symBinAddr: 0xB58B00, symSize: 0x4C }
  - { offset: 0x32ECED, size: 0x8, addend: 0x0, symName: __ZN5boost25notify_all_at_thread_exitERNS_18condition_variableENS_11unique_lockINS_5mutexEEE, symObjAddr: 0x2784, symBinAddr: 0xB58B00, symSize: 0x4C }
  - { offset: 0x32EE14, size: 0x8, addend: 0x0, symName: __ZN5boost25notify_all_at_thread_exitERNS_18condition_variableENS_11unique_lockINS_5mutexEEE, symObjAddr: 0x2784, symBinAddr: 0xB58B00, symSize: 0x4C }
  - { offset: 0x32EE4A, size: 0x8, addend: 0x0, symName: __ZN5boost25notify_all_at_thread_exitERNS_18condition_variableENS_11unique_lockINS_5mutexEEE, symObjAddr: 0x2784, symBinAddr: 0xB58B00, symSize: 0x4C }
  - { offset: 0x32EE80, size: 0x8, addend: 0x0, symName: __ZN5boost25notify_all_at_thread_exitERNS_18condition_variableENS_11unique_lockINS_5mutexEEE, symObjAddr: 0x2784, symBinAddr: 0xB58B00, symSize: 0x4C }
  - { offset: 0x32EEC3, size: 0x8, addend: 0x0, symName: __ZN5boost25notify_all_at_thread_exitERNS_18condition_variableENS_11unique_lockINS_5mutexEEE, symObjAddr: 0x2784, symBinAddr: 0xB58B00, symSize: 0x4C }
  - { offset: 0x32EEFD, size: 0x8, addend: 0x0, symName: __ZN5boost25notify_all_at_thread_exitERNS_18condition_variableENS_11unique_lockINS_5mutexEEE, symObjAddr: 0x2784, symBinAddr: 0xB58B00, symSize: 0x4C }
  - { offset: 0x32EF24, size: 0x8, addend: 0x0, symName: __ZN5boost6detail25make_ready_at_thread_exitENS_10shared_ptrINS0_17shared_state_baseEEE, symObjAddr: 0x27D0, symBinAddr: 0xB58B4C, symSize: 0x108 }
  - { offset: 0x32EF2C, size: 0x8, addend: 0x0, symName: __ZN5boost10shared_ptrINS_6detail17shared_state_baseEED1Ev, symObjAddr: 0x28D8, symBinAddr: 0xB58C54, symSize: 0x74 }
  - { offset: 0x32F971, size: 0x8, addend: 0x0, symName: __ZN5boost6detail20sp_pointer_constructINS0_16thread_data_baseES2_EEvPNS_10shared_ptrIT_EEPT0_RNS0_12shared_countE, symObjAddr: 0x7470, symBinAddr: 0xB5C83C, symSize: 0xFC }
  - { offset: 0x32F979, size: 0x8, addend: 0x0, symName: __ZN5boost6detail17sp_counted_impl_pINS0_16thread_data_baseEED1Ev, symObjAddr: 0x756C, symBinAddr: 0xB5C938, symSize: 0x4 }
  - { offset: 0x338FA2, size: 0x8, addend: 0x0, symName: __ZN5boost11this_thread21no_interruption_point6hidden18sleep_for_internalERKNS_6detail17platform_durationE, symObjAddr: 0x17B0, symBinAddr: 0xB57C70, symSize: 0x24 }
  - { offset: 0x338FAA, size: 0x8, addend: 0x0, symName: __ZN5boost11this_thread5yieldEv, symObjAddr: 0x17D4, symBinAddr: 0xB57C94, symSize: 0x18 }
  - { offset: 0x339059, size: 0x8, addend: 0x0, symName: __ZN5boost11this_thread5yieldEv, symObjAddr: 0x17D4, symBinAddr: 0xB57C94, symSize: 0x18 }
  - { offset: 0x339061, size: 0x8, addend: 0x0, symName: __ZN5boost6thread20hardware_concurrencyEv, symObjAddr: 0x17EC, symBinAddr: 0xB57CAC, symSize: 0x4C }
  - { offset: 0x33907A, size: 0x8, addend: 0x0, symName: __ZN5boost11this_thread18interruption_pointEv, symObjAddr: 0x1DF0, symBinAddr: 0xB582B0, symSize: 0x140 }
  - { offset: 0x339082, size: 0x8, addend: 0x0, symName: __ZN5boost11this_thread20interruption_enabledEv, symObjAddr: 0x1F30, symBinAddr: 0xB583F0, symSize: 0x28 }
  - { offset: 0x3393C6, size: 0x8, addend: 0x0, symName: __ZN5boost11this_thread20interruption_enabledEv, symObjAddr: 0x1F30, symBinAddr: 0xB583F0, symSize: 0x28 }
  - { offset: 0x3393CE, size: 0x8, addend: 0x0, symName: __ZN5boost11this_thread22interruption_requestedEv, symObjAddr: 0x1F58, symBinAddr: 0xB58418, symSize: 0x110 }
  - { offset: 0x3393F1, size: 0x8, addend: 0x0, symName: __ZN5boost11this_thread22interruption_requestedEv, symObjAddr: 0x1F58, symBinAddr: 0xB58418, symSize: 0x110 }
  - { offset: 0x3393F9, size: 0x8, addend: 0x0, symName: __ZN5boost11this_thread20disable_interruptionC2Ev, symObjAddr: 0x2068, symBinAddr: 0xB58528, symSize: 0x58 }
  - { offset: 0x3398CA, size: 0x8, addend: 0x0, symName: __ZN5boost25notify_all_at_thread_exitERNS_18condition_variableENS_11unique_lockINS_5mutexEEE, symObjAddr: 0x2784, symBinAddr: 0xB58B00, symSize: 0x4C }
  - { offset: 0x3398D2, size: 0x8, addend: 0x0, symName: __ZN5boost6detail25make_ready_at_thread_exitENS_10shared_ptrINS0_17shared_state_baseEEE, symObjAddr: 0x27D0, symBinAddr: 0xB58B4C, symSize: 0x108 }
  - { offset: 0x339C0C, size: 0x8, addend: 0x0, symName: __ZN5boost15throw_exceptionINS_12bad_weak_ptrEEEvRKT_, symObjAddr: 0x3348, symBinAddr: 0xB596C4, symSize: 0x48 }
  - { offset: 0x339C14, size: 0x8, addend: 0x0, symName: __ZN5boost12bad_weak_ptrD1Ev, symObjAddr: 0x3390, symBinAddr: 0xB5970C, symSize: 0x4 }
  - { offset: 0x339CBF, size: 0x8, addend: 0x0, symName: __ZN5boost15throw_exceptionINS_15condition_errorEEEvRKT_, symObjAddr: 0x3DF4, symBinAddr: 0xB59C6C, symSize: 0x50 }
  - { offset: 0x339CC7, size: 0x8, addend: 0x0, symName: __ZN5boost15condition_errorC1EiPKc, symObjAddr: 0x3E44, symBinAddr: 0xB59CBC, symSize: 0xB0 }
  - { offset: 0x339D02, size: 0x8, addend: 0x0, symName: __ZN5boost15throw_exceptionINS_10lock_errorEEEvRKT_, symObjAddr: 0x4150, symBinAddr: 0xB59FC8, symSize: 0x50 }
  - { offset: 0x339D0A, size: 0x8, addend: 0x0, symName: __ZN5boost10lock_errorC1EiPKc, symObjAddr: 0x41A0, symBinAddr: 0xB5A018, symSize: 0xB0 }
  - { offset: 0x339D9D, size: 0x8, addend: 0x0, symName: __ZN5boost15throw_exceptionINS_21thread_resource_errorEEEvRKT_, symObjAddr: 0x6DD0, symBinAddr: 0xB5C19C, symSize: 0x50 }
  - { offset: 0x339DA5, size: 0x8, addend: 0x0, symName: __ZN5boost21thread_resource_errorC1EiPKc, symObjAddr: 0x6E20, symBinAddr: 0xB5C1EC, symSize: 0xB0 }
  - { offset: 0x34F2FC, size: 0x8, addend: 0x0, symName: __ZN5boost6detail16thread_data_baseD2Ev, symObjAddr: 0x0, symBinAddr: 0xB565B4, symSize: 0x2A0 }
  - { offset: 0x34FF90, size: 0x8, addend: 0x0, symName: __ZN5boost5mutexD1Ev, symObjAddr: 0x2B0, symBinAddr: 0xB56854, symSize: 0x34 }
  - { offset: 0x34FF98, size: 0x8, addend: 0x0, symName: __ZN5boost10shared_ptrINS_6detail16thread_data_baseEED1Ev, symObjAddr: 0x2E4, symBinAddr: 0xB56888, symSize: 0x74 }
  - { offset: 0x350017, size: 0x8, addend: 0x0, symName: __ZN5boost10shared_ptrINS_6detail16thread_data_baseEED1Ev, symObjAddr: 0x2E4, symBinAddr: 0xB56888, symSize: 0x74 }
  - { offset: 0x35001F, size: 0x8, addend: 0x0, symName: __ZN5boost23enable_shared_from_thisINS_6detail16thread_data_baseEED2Ev, symObjAddr: 0x358, symBinAddr: 0xB568FC, symSize: 0x4C }
  - { offset: 0x35014A, size: 0x8, addend: 0x0, symName: __ZN5boost23enable_shared_from_thisINS_6detail16thread_data_baseEED2Ev, symObjAddr: 0x358, symBinAddr: 0xB568FC, symSize: 0x4C }
  - { offset: 0x350152, size: 0x8, addend: 0x0, symName: __ZN5boost6detail16thread_data_baseD1Ev, symObjAddr: 0x3A4, symBinAddr: 0xB56948, symSize: 0x4 }
  - { offset: 0x350247, size: 0x8, addend: 0x0, symName: __ZN5boost6detail16thread_data_baseD1Ev, symObjAddr: 0x3A4, symBinAddr: 0xB56948, symSize: 0x4 }
  - { offset: 0x35024F, size: 0x8, addend: 0x0, symName: __ZN5boost6detail16thread_data_baseD0Ev, symObjAddr: 0x3A8, symBinAddr: 0xB5694C, symSize: 0x4 }
  - { offset: 0x35027E, size: 0x8, addend: 0x0, symName: __ZN5boost6detail16thread_data_baseD0Ev, symObjAddr: 0x3A8, symBinAddr: 0xB5694C, symSize: 0x4 }
  - { offset: 0x350286, size: 0x8, addend: 0x0, symName: __ZN5boost6detail23get_current_thread_dataEv, symObjAddr: 0x3AC, symBinAddr: 0xB56950, symSize: 0x7C }
  - { offset: 0x3503EA, size: 0x8, addend: 0x0, symName: __ZN5boost10shared_ptrINS_6detail16thread_data_baseEE5resetIS2_EEvPT_, symObjAddr: 0x510, symBinAddr: 0xB56A50, symSize: 0xF8 }
  - { offset: 0x3508A7, size: 0x8, addend: 0x0, symName: __ZN5boost6threadC2Ev, symObjAddr: 0x688, symBinAddr: 0xB56B48, symSize: 0x8 }
  - { offset: 0x3508AF, size: 0x8, addend: 0x0, symName: __ZN5boost6threadC1Ev, symObjAddr: 0x690, symBinAddr: 0xB56B50, symSize: 0x8 }
  - { offset: 0x3508DC, size: 0x8, addend: 0x0, symName: __ZN5boost6threadC2Ev, symObjAddr: 0x688, symBinAddr: 0xB56B48, symSize: 0x8 }
  - { offset: 0x350906, size: 0x8, addend: 0x0, symName: __ZN5boost6threadC2Ev, symObjAddr: 0x688, symBinAddr: 0xB56B48, symSize: 0x8 }
  - { offset: 0x350930, size: 0x8, addend: 0x0, symName: __ZN5boost6threadC2Ev, symObjAddr: 0x688, symBinAddr: 0xB56B48, symSize: 0x8 }
  - { offset: 0x350958, size: 0x8, addend: 0x0, symName: __ZN5boost6threadC2Ev, symObjAddr: 0x688, symBinAddr: 0xB56B48, symSize: 0x8 }
  - { offset: 0x3509AB, size: 0x8, addend: 0x0, symName: __ZN5boost6threadC1Ev, symObjAddr: 0x690, symBinAddr: 0xB56B50, symSize: 0x8 }
  - { offset: 0x3509B3, size: 0x8, addend: 0x0, symName: __ZN5boost6thread21start_thread_noexceptEv, symObjAddr: 0x698, symBinAddr: 0xB56B58, symSize: 0x10C }
  - { offset: 0x3509EC, size: 0x8, addend: 0x0, symName: __ZN5boost6threadC1Ev, symObjAddr: 0x690, symBinAddr: 0xB56B50, symSize: 0x8 }
  - { offset: 0x350A16, size: 0x8, addend: 0x0, symName: __ZN5boost6threadC1Ev, symObjAddr: 0x690, symBinAddr: 0xB56B50, symSize: 0x8 }
  - { offset: 0x350A40, size: 0x8, addend: 0x0, symName: __ZN5boost6threadC1Ev, symObjAddr: 0x690, symBinAddr: 0xB56B50, symSize: 0x8 }
  - { offset: 0x350A6A, size: 0x8, addend: 0x0, symName: __ZN5boost6threadC1Ev, symObjAddr: 0x690, symBinAddr: 0xB56B50, symSize: 0x8 }
  - { offset: 0x350A92, size: 0x8, addend: 0x0, symName: __ZN5boost6threadC1Ev, symObjAddr: 0x690, symBinAddr: 0xB56B50, symSize: 0x8 }
  - { offset: 0x350C58, size: 0x8, addend: 0x0, symName: __ZN5boost6thread21start_thread_noexceptEv, symObjAddr: 0x698, symBinAddr: 0xB56B58, symSize: 0x10C }
  - { offset: 0x350C60, size: 0x8, addend: 0x0, symName: __ZN5boost12_GLOBAL__N_112thread_proxyEPv, symObjAddr: 0x7A4, symBinAddr: 0xB56C64, symSize: 0x2B8 }
  - { offset: 0x35161F, size: 0x8, addend: 0x0, symName: __ZN5boost12_GLOBAL__N_112thread_proxyEPv, symObjAddr: 0x7A4, symBinAddr: 0xB56C64, symSize: 0x2B8 }
  - { offset: 0x351627, size: 0x8, addend: 0x0, symName: __ZN5boost6thread21start_thread_noexceptERKNS_17thread_attributesE, symObjAddr: 0xA5C, symBinAddr: 0xB56F1C, symSize: 0x240 }
  - { offset: 0x3517F7, size: 0x8, addend: 0x0, symName: __ZN5boost6thread21start_thread_noexceptERKNS_17thread_attributesE, symObjAddr: 0xA5C, symBinAddr: 0xB56F1C, symSize: 0x240 }
  - { offset: 0x35181F, size: 0x8, addend: 0x0, symName: __ZN5boost6thread21start_thread_noexceptERKNS_17thread_attributesE, symObjAddr: 0xA5C, symBinAddr: 0xB56F1C, symSize: 0x240 }
  - { offset: 0x351F5B, size: 0x8, addend: 0x0, symName: __ZN5boost6thread21start_thread_noexceptERKNS_17thread_attributesE, symObjAddr: 0xA5C, symBinAddr: 0xB56F1C, symSize: 0x240 }
  - { offset: 0x351F63, size: 0x8, addend: 0x0, symName: __ZNK5boost6thread15get_thread_infoEv, symObjAddr: 0xC9C, symBinAddr: 0xB5715C, symSize: 0x1C }
  - { offset: 0x3527F6, size: 0x8, addend: 0x0, symName: __ZNK5boost6thread15get_thread_infoEv, symObjAddr: 0xC9C, symBinAddr: 0xB5715C, symSize: 0x1C }
  - { offset: 0x3527FE, size: 0x8, addend: 0x0, symName: __ZN5boost6thread13join_noexceptEv, symObjAddr: 0xCB8, symBinAddr: 0xB57178, symSize: 0x2EC }
  - { offset: 0x35282B, size: 0x8, addend: 0x0, symName: __ZNK5boost6thread15get_thread_infoEv, symObjAddr: 0xC9C, symBinAddr: 0xB5715C, symSize: 0x1C }
  - { offset: 0x352863, size: 0x8, addend: 0x0, symName: __ZNK5boost6thread15get_thread_infoEv, symObjAddr: 0xC9C, symBinAddr: 0xB5715C, symSize: 0x1C }
  - { offset: 0x352989, size: 0x8, addend: 0x0, symName: __ZN5boost6thread13join_noexceptEv, symObjAddr: 0xCB8, symBinAddr: 0xB57178, symSize: 0x2EC }
  - { offset: 0x352991, size: 0x8, addend: 0x0, symName: __ZN5boost18condition_variable4waitERNS_11unique_lockINS_5mutexEEE, symObjAddr: 0xFA4, symBinAddr: 0xB57464, symSize: 0xFC }
  - { offset: 0x353578, size: 0x8, addend: 0x0, symName: __ZN5boost18condition_variable4waitERNS_11unique_lockINS_5mutexEEE, symObjAddr: 0xFA4, symBinAddr: 0xB57464, symSize: 0xFC }
  - { offset: 0x353580, size: 0x8, addend: 0x0, symName: __ZN5boost11unique_lockINS_5mutexEED1Ev, symObjAddr: 0x10A0, symBinAddr: 0xB57560, symSize: 0x40 }
  - { offset: 0x353827, size: 0x8, addend: 0x0, symName: __ZN5boost11unique_lockINS_5mutexEED1Ev, symObjAddr: 0x10A0, symBinAddr: 0xB57560, symSize: 0x40 }
  - { offset: 0x35382F, size: 0x8, addend: 0x0, symName: __ZN5boost10lock_guardINS_5mutexEED1Ev, symObjAddr: 0x10E0, symBinAddr: 0xB575A0, symSize: 0x38 }
  - { offset: 0x353905, size: 0x8, addend: 0x0, symName: __ZN5boost10lock_guardINS_5mutexEED1Ev, symObjAddr: 0x10E0, symBinAddr: 0xB575A0, symSize: 0x38 }
  - { offset: 0x35390D, size: 0x8, addend: 0x0, symName: __ZN5boost6thread26do_try_join_until_noexceptERKNS_6detail23real_platform_timepointERb, symObjAddr: 0x1118, symBinAddr: 0xB575D8, symSize: 0x34C }
  - { offset: 0x3539B6, size: 0x8, addend: 0x0, symName: __ZN5boost6thread26do_try_join_until_noexceptERKNS_6detail23real_platform_timepointERb, symObjAddr: 0x1118, symBinAddr: 0xB575D8, symSize: 0x34C }
  - { offset: 0x3539BE, size: 0x8, addend: 0x0, symName: __ZN5boost18condition_variable13do_wait_untilERNS_11unique_lockINS_5mutexEEERKNS_6detail23real_platform_timepointE, symObjAddr: 0x1464, symBinAddr: 0xB57924, symSize: 0x114 }
  - { offset: 0x354424, size: 0x8, addend: 0x0, symName: __ZN5boost18condition_variable13do_wait_untilERNS_11unique_lockINS_5mutexEEERKNS_6detail23real_platform_timepointE, symObjAddr: 0x1464, symBinAddr: 0xB57924, symSize: 0x114 }
  - { offset: 0x35442C, size: 0x8, addend: 0x0, symName: __ZNK5boost6thread8joinableEv, symObjAddr: 0x1578, symBinAddr: 0xB57A38, symSize: 0x7C }
  - { offset: 0x3546E7, size: 0x8, addend: 0x0, symName: __ZNK5boost6thread8joinableEv, symObjAddr: 0x1578, symBinAddr: 0xB57A38, symSize: 0x7C }
  - { offset: 0x3546EF, size: 0x8, addend: 0x0, symName: __ZN5boost6thread6detachEv, symObjAddr: 0x15F4, symBinAddr: 0xB57AB4, symSize: 0x1BC }
  - { offset: 0x354959, size: 0x8, addend: 0x0, symName: __ZN5boost6thread6detachEv, symObjAddr: 0x15F4, symBinAddr: 0xB57AB4, symSize: 0x1BC }
  - { offset: 0x354961, size: 0x8, addend: 0x0, symName: __ZN5boost11this_thread21no_interruption_point6hidden18sleep_for_internalERKNS_6detail17platform_durationE, symObjAddr: 0x17B0, symBinAddr: 0xB57C70, symSize: 0x24 }
  - { offset: 0x354E7F, size: 0x8, addend: 0x0, symName: __ZN5boost6thread20hardware_concurrencyEv, symObjAddr: 0x17EC, symBinAddr: 0xB57CAC, symSize: 0x4C }
  - { offset: 0x354E87, size: 0x8, addend: 0x0, symName: __ZN5boost6thread20physical_concurrencyEv, symObjAddr: 0x1838, symBinAddr: 0xB57CF8, symSize: 0x4C }
  - { offset: 0x354EC6, size: 0x8, addend: 0x0, symName: __ZN5boost6thread20physical_concurrencyEv, symObjAddr: 0x1838, symBinAddr: 0xB57CF8, symSize: 0x4C }
  - { offset: 0x354ECE, size: 0x8, addend: 0x0, symName: __ZN5boost6thread9interruptEv, symObjAddr: 0x1884, symBinAddr: 0xB57D44, symSize: 0x204 }
  - { offset: 0x354F0D, size: 0x8, addend: 0x0, symName: __ZN5boost6thread9interruptEv, symObjAddr: 0x1884, symBinAddr: 0xB57D44, symSize: 0x204 }
  - { offset: 0x354F15, size: 0x8, addend: 0x0, symName: __ZN5boost7pthread25pthread_mutex_scoped_lockD1Ev, symObjAddr: 0x1A88, symBinAddr: 0xB57F48, symSize: 0x44 }
  - { offset: 0x3555DC, size: 0x8, addend: 0x0, symName: __ZN5boost7pthread25pthread_mutex_scoped_lockD1Ev, symObjAddr: 0x1A88, symBinAddr: 0xB57F48, symSize: 0x44 }
  - { offset: 0x3555E4, size: 0x8, addend: 0x0, symName: __ZNK5boost6thread22interruption_requestedEv, symObjAddr: 0x1ACC, symBinAddr: 0xB57F8C, symSize: 0x180 }
  - { offset: 0x355683, size: 0x8, addend: 0x0, symName: __ZNK5boost6thread22interruption_requestedEv, symObjAddr: 0x1ACC, symBinAddr: 0xB57F8C, symSize: 0x180 }
  - { offset: 0x35568B, size: 0x8, addend: 0x0, symName: __ZN5boost6thread13native_handleEv, symObjAddr: 0x1C4C, symBinAddr: 0xB5810C, symSize: 0x1A4 }
  - { offset: 0x355C2E, size: 0x8, addend: 0x0, symName: __ZN5boost6thread13native_handleEv, symObjAddr: 0x1C4C, symBinAddr: 0xB5810C, symSize: 0x1A4 }
  - { offset: 0x355C36, size: 0x8, addend: 0x0, symName: __ZN5boost11this_thread18interruption_pointEv, symObjAddr: 0x1DF0, symBinAddr: 0xB582B0, symSize: 0x140 }
  - { offset: 0x356222, size: 0x8, addend: 0x0, symName: __ZN5boost11this_thread20disable_interruptionC2Ev, symObjAddr: 0x2068, symBinAddr: 0xB58528, symSize: 0x58 }
  - { offset: 0x35622A, size: 0x8, addend: 0x0, symName: __ZN5boost11this_thread20disable_interruptionC1Ev, symObjAddr: 0x20C0, symBinAddr: 0xB58580, symSize: 0x58 }
  - { offset: 0x3562A1, size: 0x8, addend: 0x0, symName: __ZN5boost11this_thread20disable_interruptionC1Ev, symObjAddr: 0x20C0, symBinAddr: 0xB58580, symSize: 0x58 }
  - { offset: 0x3562A9, size: 0x8, addend: 0x0, symName: __ZN5boost11this_thread20disable_interruptionD2Ev, symObjAddr: 0x2118, symBinAddr: 0xB585D8, symSize: 0x38 }
  - { offset: 0x35631E, size: 0x8, addend: 0x0, symName: __ZN5boost11this_thread20disable_interruptionD2Ev, symObjAddr: 0x2118, symBinAddr: 0xB585D8, symSize: 0x38 }
  - { offset: 0x356326, size: 0x8, addend: 0x0, symName: __ZN5boost11this_thread20disable_interruptionD1Ev, symObjAddr: 0x2150, symBinAddr: 0xB58610, symSize: 0x38 }
  - { offset: 0x356373, size: 0x8, addend: 0x0, symName: __ZN5boost11this_thread20disable_interruptionD1Ev, symObjAddr: 0x2150, symBinAddr: 0xB58610, symSize: 0x38 }
  - { offset: 0x35637B, size: 0x8, addend: 0x0, symName: __ZN5boost11this_thread20restore_interruptionC2ERNS0_20disable_interruptionE, symObjAddr: 0x2188, symBinAddr: 0xB58648, symSize: 0x38 }
  - { offset: 0x3563F3, size: 0x8, addend: 0x0, symName: __ZN5boost11this_thread20restore_interruptionC2ERNS0_20disable_interruptionE, symObjAddr: 0x2188, symBinAddr: 0xB58648, symSize: 0x38 }
  - { offset: 0x3563FB, size: 0x8, addend: 0x0, symName: __ZN5boost11this_thread20restore_interruptionC1ERNS0_20disable_interruptionE, symObjAddr: 0x21C0, symBinAddr: 0xB58680, symSize: 0x38 }
  - { offset: 0x35646F, size: 0x8, addend: 0x0, symName: __ZN5boost11this_thread20restore_interruptionC1ERNS0_20disable_interruptionE, symObjAddr: 0x21C0, symBinAddr: 0xB58680, symSize: 0x38 }
  - { offset: 0x356477, size: 0x8, addend: 0x0, symName: __ZN5boost11this_thread20restore_interruptionD2Ev, symObjAddr: 0x21F8, symBinAddr: 0xB586B8, symSize: 0x34 }
  - { offset: 0x3564EE, size: 0x8, addend: 0x0, symName: __ZN5boost11this_thread20restore_interruptionD2Ev, symObjAddr: 0x21F8, symBinAddr: 0xB586B8, symSize: 0x34 }
  - { offset: 0x3564F6, size: 0x8, addend: 0x0, symName: __ZN5boost11this_thread20restore_interruptionD1Ev, symObjAddr: 0x222C, symBinAddr: 0xB586EC, symSize: 0x34 }
  - { offset: 0x356543, size: 0x8, addend: 0x0, symName: __ZN5boost11this_thread20restore_interruptionD1Ev, symObjAddr: 0x222C, symBinAddr: 0xB586EC, symSize: 0x34 }
  - { offset: 0x35654B, size: 0x8, addend: 0x0, symName: __ZN5boost6detail24add_thread_exit_functionEPNS0_25thread_exit_function_baseE, symObjAddr: 0x2260, symBinAddr: 0xB58720, symSize: 0x84 }
  - { offset: 0x3570B3, size: 0x8, addend: 0x0, symName: __ZN5boost10shared_ptrINS_6detail17shared_state_baseEED1Ev, symObjAddr: 0x28D8, symBinAddr: 0xB58C54, symSize: 0x74 }
  - { offset: 0x3570BB, size: 0x8, addend: 0x0, symName: __ZN5boost6detail16thread_data_base25notify_all_at_thread_exitEPNS_18condition_variableEPNS_5mutexE, symObjAddr: 0x294C, symBinAddr: 0xB58CC8, symSize: 0x120 }
  - { offset: 0x35763E, size: 0x8, addend: 0x0, symName: __ZN5boost6detail16thread_data_base25notify_all_at_thread_exitEPNS_18condition_variableEPNS_5mutexE, symObjAddr: 0x294C, symBinAddr: 0xB58CC8, symSize: 0x120 }
  - { offset: 0x357646, size: 0x8, addend: 0x0, symName: __ZN5boost16exception_detail27get_static_exception_objectINS0_10bad_alloc_EEENS_13exception_ptrEv, symObjAddr: 0x2A6C, symBinAddr: 0xB58DE8, symSize: 0x290 }
  - { offset: 0x358298, size: 0x8, addend: 0x0, symName: __ZN5boost13exception_ptrD1Ev, symObjAddr: 0x2CFC, symBinAddr: 0xB59078, symSize: 0x74 }
  - { offset: 0x3582A0, size: 0x8, addend: 0x0, symName: __ZN5boost16exception_detail27get_static_exception_objectINS0_14bad_exception_EEENS_13exception_ptrEv, symObjAddr: 0x2D70, symBinAddr: 0xB590EC, symSize: 0x250 }
  - { offset: 0x3586E8, size: 0x8, addend: 0x0, symName: __ZN5boost6detail17shared_state_base22mark_finished_internalERNS_11unique_lockINS_5mutexEEE, symObjAddr: 0x2FC0, symBinAddr: 0xB5933C, symSize: 0xD4 }
  - { offset: 0x3586F0, size: 0x8, addend: 0x0, symName: __ZN5boost6detail12shared_countD1Ev, symObjAddr: 0x3094, symBinAddr: 0xB59410, symSize: 0x74 }
  - { offset: 0x3589CB, size: 0x8, addend: 0x0, symName: __ZN5boost6detail12shared_countD1Ev, symObjAddr: 0x3094, symBinAddr: 0xB59410, symSize: 0x74 }
  - { offset: 0x3589D3, size: 0x8, addend: 0x0, symName: __ZN5boost6detail12_GLOBAL__N_114tls_destructorEPv, symObjAddr: 0x3108, symBinAddr: 0xB59484, symSize: 0x240 }
  - { offset: 0x358B59, size: 0x8, addend: 0x0, symName: __ZN5boost6detail12_GLOBAL__N_114tls_destructorEPv, symObjAddr: 0x3108, symBinAddr: 0xB59484, symSize: 0x240 }
  - { offset: 0x358B61, size: 0x8, addend: 0x0, symName: __ZN5boost15throw_exceptionINS_12bad_weak_ptrEEEvRKT_, symObjAddr: 0x3348, symBinAddr: 0xB596C4, symSize: 0x48 }
  - { offset: 0x3593C7, size: 0x8, addend: 0x0, symName: __ZN5boost12bad_weak_ptrD1Ev, symObjAddr: 0x3390, symBinAddr: 0xB5970C, symSize: 0x4 }
  - { offset: 0x3593CF, size: 0x8, addend: 0x0, symName: __ZN5boost10wrapexceptINS_12bad_weak_ptrEED1Ev, symObjAddr: 0x3394, symBinAddr: 0xB59710, symSize: 0x58 }
  - { offset: 0x3593FC, size: 0x8, addend: 0x0, symName: __ZN5boost12bad_weak_ptrD1Ev, symObjAddr: 0x3390, symBinAddr: 0xB5970C, symSize: 0x4 }
  - { offset: 0x359404, size: 0x8, addend: 0x0, symName: __ZN5boost10wrapexceptINS_12bad_weak_ptrEED1Ev, symObjAddr: 0x3394, symBinAddr: 0xB59710, symSize: 0x58 }
  - { offset: 0x359444, size: 0x8, addend: 0x0, symName: __ZN5boost10wrapexceptINS_12bad_weak_ptrEED1Ev, symObjAddr: 0x3394, symBinAddr: 0xB59710, symSize: 0x58 }
  - { offset: 0x35944C, size: 0x8, addend: 0x0, symName: __ZNK5boost10wrapexceptINS_12bad_weak_ptrEE5cloneEv, symObjAddr: 0x33EC, symBinAddr: 0xB59768, symSize: 0xEC }
  - { offset: 0x359625, size: 0x8, addend: 0x0, symName: __ZNK5boost10wrapexceptINS_12bad_weak_ptrEE5cloneEv, symObjAddr: 0x33EC, symBinAddr: 0xB59768, symSize: 0xEC }
  - { offset: 0x35962D, size: 0x8, addend: 0x0, symName: __ZNK5boost10wrapexceptINS_12bad_weak_ptrEE7rethrowEv, symObjAddr: 0x34D8, symBinAddr: 0xB59854, symSize: 0x50 }
  - { offset: 0x35981E, size: 0x8, addend: 0x0, symName: __ZNK5boost10wrapexceptINS_12bad_weak_ptrEE7rethrowEv, symObjAddr: 0x34D8, symBinAddr: 0xB59854, symSize: 0x50 }
  - { offset: 0x35983B, size: 0x8, addend: 0x0, symName: __ZNK5boost10wrapexceptINS_12bad_weak_ptrEE7rethrowEv, symObjAddr: 0x34D8, symBinAddr: 0xB59854, symSize: 0x50 }
  - { offset: 0x35984A, size: 0x8, addend: 0x0, symName: __ZNK5boost10wrapexceptINS_12bad_weak_ptrEE7rethrowEv, symObjAddr: 0x34D8, symBinAddr: 0xB59854, symSize: 0x50 }
  - { offset: 0x359852, size: 0x8, addend: 0x0, symName: __ZN5boost10wrapexceptINS_12bad_weak_ptrEED0Ev, symObjAddr: 0x3528, symBinAddr: 0xB598A4, symSize: 0x58 }
  - { offset: 0x3598A3, size: 0x8, addend: 0x0, symName: __ZN5boost10wrapexceptINS_12bad_weak_ptrEED0Ev, symObjAddr: 0x3528, symBinAddr: 0xB598A4, symSize: 0x58 }
  - { offset: 0x3598AB, size: 0x8, addend: 0x0, symName: __ZThn8_N5boost10wrapexceptINS_12bad_weak_ptrEED1Ev, symObjAddr: 0x3580, symBinAddr: 0xB598FC, symSize: 0x50 }
  - { offset: 0x3599B9, size: 0x8, addend: 0x0, symName: __ZThn8_N5boost10wrapexceptINS_12bad_weak_ptrEED1Ev, symObjAddr: 0x3580, symBinAddr: 0xB598FC, symSize: 0x50 }
  - { offset: 0x3599C1, size: 0x8, addend: 0x0, symName: __ZThn8_N5boost10wrapexceptINS_12bad_weak_ptrEED0Ev, symObjAddr: 0x35D0, symBinAddr: 0xB5994C, symSize: 0x5C }
  - { offset: 0x3599E6, size: 0x8, addend: 0x0, symName: __ZThn8_N5boost10wrapexceptINS_12bad_weak_ptrEED0Ev, symObjAddr: 0x35D0, symBinAddr: 0xB5994C, symSize: 0x5C }
  - { offset: 0x359A0C, size: 0x8, addend: 0x0, symName: __ZThn8_N5boost10wrapexceptINS_12bad_weak_ptrEED0Ev, symObjAddr: 0x35D0, symBinAddr: 0xB5994C, symSize: 0x5C }
  - { offset: 0x359AF4, size: 0x8, addend: 0x0, symName: __ZThn8_N5boost10wrapexceptINS_12bad_weak_ptrEED0Ev, symObjAddr: 0x35D0, symBinAddr: 0xB5994C, symSize: 0x5C }
  - { offset: 0x359AFC, size: 0x8, addend: 0x0, symName: __ZNK5boost12bad_weak_ptr4whatEv, symObjAddr: 0x362C, symBinAddr: 0xB599A8, symSize: 0xC }
  - { offset: 0x359C18, size: 0x8, addend: 0x0, symName: __ZNK5boost12bad_weak_ptr4whatEv, symObjAddr: 0x362C, symBinAddr: 0xB599A8, symSize: 0xC }
  - { offset: 0x359C20, size: 0x8, addend: 0x0, symName: __ZThn16_N5boost10wrapexceptINS_12bad_weak_ptrEED1Ev, symObjAddr: 0x3638, symBinAddr: 0xB599B4, symSize: 0x50 }
  - { offset: 0x359C4D, size: 0x8, addend: 0x0, symName: __ZThn16_N5boost10wrapexceptINS_12bad_weak_ptrEED1Ev, symObjAddr: 0x3638, symBinAddr: 0xB599B4, symSize: 0x50 }
  - { offset: 0x359C55, size: 0x8, addend: 0x0, symName: __ZThn16_N5boost10wrapexceptINS_12bad_weak_ptrEED0Ev, symObjAddr: 0x3688, symBinAddr: 0xB59A04, symSize: 0x5C }
  - { offset: 0x359C7A, size: 0x8, addend: 0x0, symName: __ZThn16_N5boost10wrapexceptINS_12bad_weak_ptrEED0Ev, symObjAddr: 0x3688, symBinAddr: 0xB59A04, symSize: 0x5C }
  - { offset: 0x359CA0, size: 0x8, addend: 0x0, symName: __ZThn16_N5boost10wrapexceptINS_12bad_weak_ptrEED0Ev, symObjAddr: 0x3688, symBinAddr: 0xB59A04, symSize: 0x5C }
  - { offset: 0x359D65, size: 0x8, addend: 0x0, symName: __ZThn16_N5boost10wrapexceptINS_12bad_weak_ptrEED0Ev, symObjAddr: 0x3688, symBinAddr: 0xB59A04, symSize: 0x5C }
  - { offset: 0x359E8D, size: 0x8, addend: 0x0, symName: __ZN5boost12bad_weak_ptrD0Ev, symObjAddr: 0x36EC, symBinAddr: 0xB59A60, symSize: 0x14 }
  - { offset: 0x359E95, size: 0x8, addend: 0x0, symName: __ZN5boost10wrapexceptINS_12bad_weak_ptrEEC1ERKS2_, symObjAddr: 0x3700, symBinAddr: 0xB59A74, symSize: 0xAC }
  - { offset: 0x359F19, size: 0x8, addend: 0x0, symName: __ZN5boost10wrapexceptINS_12bad_weak_ptrEEC1ERKS2_, symObjAddr: 0x3700, symBinAddr: 0xB59A74, symSize: 0xAC }
  - { offset: 0x35A0B2, size: 0x8, addend: 0x0, symName: __ZN5boost6detail20interruption_checker16unlock_if_lockedEv, symObjAddr: 0x3CA8, symBinAddr: 0xB59B20, symSize: 0x14C }
  - { offset: 0x35A0BA, size: 0x8, addend: 0x0, symName: __ZN5boost15throw_exceptionINS_15condition_errorEEEvRKT_, symObjAddr: 0x3DF4, symBinAddr: 0xB59C6C, symSize: 0x50 }
  - { offset: 0x35A4D6, size: 0x8, addend: 0x0, symName: __ZN5boost15condition_errorC1EiPKc, symObjAddr: 0x3E44, symBinAddr: 0xB59CBC, symSize: 0xB0 }
  - { offset: 0x35A4DE, size: 0x8, addend: 0x0, symName: __ZN5boost15condition_errorD1Ev, symObjAddr: 0x3EF4, symBinAddr: 0xB59D6C, symSize: 0x4 }
  - { offset: 0x35A5EC, size: 0x8, addend: 0x0, symName: __ZN5boost15condition_errorD1Ev, symObjAddr: 0x3EF4, symBinAddr: 0xB59D6C, symSize: 0x4 }
  - { offset: 0x35A5F4, size: 0x8, addend: 0x0, symName: __ZN5boost6detail20interruption_checkerC2EP23_opaque_pthread_mutex_tP22_opaque_pthread_cond_t, symObjAddr: 0x3EF8, symBinAddr: 0xB59D70, symSize: 0x1A8 }
  - { offset: 0x35A621, size: 0x8, addend: 0x0, symName: __ZN5boost15condition_errorD1Ev, symObjAddr: 0x3EF4, symBinAddr: 0xB59D6C, symSize: 0x4 }
  - { offset: 0x35A629, size: 0x8, addend: 0x0, symName: __ZN5boost6detail20interruption_checkerC2EP23_opaque_pthread_mutex_tP22_opaque_pthread_cond_t, symObjAddr: 0x3EF8, symBinAddr: 0xB59D70, symSize: 0x1A8 }
  - { offset: 0x35A64A, size: 0x8, addend: 0x0, symName: __ZN5boost15condition_errorD1Ev, symObjAddr: 0x3EF4, symBinAddr: 0xB59D6C, symSize: 0x4 }
  - { offset: 0x35A652, size: 0x8, addend: 0x0, symName: __ZN5boost6detail20interruption_checkerC2EP23_opaque_pthread_mutex_tP22_opaque_pthread_cond_t, symObjAddr: 0x3EF8, symBinAddr: 0xB59D70, symSize: 0x1A8 }
  - { offset: 0x35A68D, size: 0x8, addend: 0x0, symName: __ZN5boost6detail20interruption_checkerC2EP23_opaque_pthread_mutex_tP22_opaque_pthread_cond_t, symObjAddr: 0x3EF8, symBinAddr: 0xB59D70, symSize: 0x1A8 }
  - { offset: 0x35A695, size: 0x8, addend: 0x0, symName: __ZN5boost11unique_lockINS_5mutexEE6unlockEv, symObjAddr: 0x40A0, symBinAddr: 0xB59F18, symSize: 0xB0 }
  - { offset: 0x35AA83, size: 0x8, addend: 0x0, symName: __ZN5boost11unique_lockINS_5mutexEE6unlockEv, symObjAddr: 0x40A0, symBinAddr: 0xB59F18, symSize: 0xB0 }
  - { offset: 0x35AA8B, size: 0x8, addend: 0x0, symName: __ZN5boost15throw_exceptionINS_10lock_errorEEEvRKT_, symObjAddr: 0x4150, symBinAddr: 0xB59FC8, symSize: 0x50 }
  - { offset: 0x35AB3C, size: 0x8, addend: 0x0, symName: __ZN5boost15throw_exceptionINS_10lock_errorEEEvRKT_, symObjAddr: 0x4150, symBinAddr: 0xB59FC8, symSize: 0x50 }
  - { offset: 0x35AB58, size: 0x8, addend: 0x0, symName: __ZN5boost15throw_exceptionINS_10lock_errorEEEvRKT_, symObjAddr: 0x4150, symBinAddr: 0xB59FC8, symSize: 0x50 }
  - { offset: 0x35AB75, size: 0x8, addend: 0x0, symName: __ZN5boost15throw_exceptionINS_10lock_errorEEEvRKT_, symObjAddr: 0x4150, symBinAddr: 0xB59FC8, symSize: 0x50 }
  - { offset: 0x35AB92, size: 0x8, addend: 0x0, symName: __ZN5boost15throw_exceptionINS_10lock_errorEEEvRKT_, symObjAddr: 0x4150, symBinAddr: 0xB59FC8, symSize: 0x50 }
  - { offset: 0x35ABA3, size: 0x8, addend: 0x0, symName: __ZN5boost10lock_errorC1EiPKc, symObjAddr: 0x41A0, symBinAddr: 0xB5A018, symSize: 0xB0 }
  - { offset: 0x35ABAB, size: 0x8, addend: 0x0, symName: __ZN5boost10lock_errorD1Ev, symObjAddr: 0x4250, symBinAddr: 0xB5A0C8, symSize: 0x4 }
  - { offset: 0x35ACC2, size: 0x8, addend: 0x0, symName: __ZN5boost10lock_errorD1Ev, symObjAddr: 0x4250, symBinAddr: 0xB5A0C8, symSize: 0x4 }
  - { offset: 0x35ACCA, size: 0x8, addend: 0x0, symName: __ZN5boost10wrapexceptINS_10lock_errorEEC1ERKS1_, symObjAddr: 0x4254, symBinAddr: 0xB5A0CC, symSize: 0x80 }
  - { offset: 0x35ACF7, size: 0x8, addend: 0x0, symName: __ZN5boost10lock_errorD1Ev, symObjAddr: 0x4250, symBinAddr: 0xB5A0C8, symSize: 0x4 }
  - { offset: 0x35ACFF, size: 0x8, addend: 0x0, symName: __ZN5boost10wrapexceptINS_10lock_errorEEC1ERKS1_, symObjAddr: 0x4254, symBinAddr: 0xB5A0CC, symSize: 0x80 }
  - { offset: 0x35AD20, size: 0x8, addend: 0x0, symName: __ZN5boost10lock_errorD1Ev, symObjAddr: 0x4250, symBinAddr: 0xB5A0C8, symSize: 0x4 }
  - { offset: 0x35AD28, size: 0x8, addend: 0x0, symName: __ZN5boost10wrapexceptINS_10lock_errorEEC1ERKS1_, symObjAddr: 0x4254, symBinAddr: 0xB5A0CC, symSize: 0x80 }
  - { offset: 0x35AD49, size: 0x8, addend: 0x0, symName: __ZN5boost10lock_errorD1Ev, symObjAddr: 0x4250, symBinAddr: 0xB5A0C8, symSize: 0x4 }
  - { offset: 0x35AD51, size: 0x8, addend: 0x0, symName: __ZN5boost10wrapexceptINS_10lock_errorEEC1ERKS1_, symObjAddr: 0x4254, symBinAddr: 0xB5A0CC, symSize: 0x80 }
  - { offset: 0x35AE6B, size: 0x8, addend: 0x0, symName: __ZN5boost10wrapexceptINS_10lock_errorEEC1ERKS1_, symObjAddr: 0x4254, symBinAddr: 0xB5A0CC, symSize: 0x80 }
  - { offset: 0x35AE73, size: 0x8, addend: 0x0, symName: __ZN5boost10wrapexceptINS_10lock_errorEED1Ev, symObjAddr: 0x42D4, symBinAddr: 0xB5A14C, symSize: 0x58 }
  - { offset: 0x35AFD6, size: 0x8, addend: 0x0, symName: __ZN5boost10wrapexceptINS_10lock_errorEED1Ev, symObjAddr: 0x42D4, symBinAddr: 0xB5A14C, symSize: 0x58 }
  - { offset: 0x35AFDE, size: 0x8, addend: 0x0, symName: __ZNK5boost10wrapexceptINS_10lock_errorEE5cloneEv, symObjAddr: 0x432C, symBinAddr: 0xB5A1A4, symSize: 0x110 }
  - { offset: 0x35B1DD, size: 0x8, addend: 0x0, symName: __ZNK5boost10wrapexceptINS_10lock_errorEE5cloneEv, symObjAddr: 0x432C, symBinAddr: 0xB5A1A4, symSize: 0x110 }
  - { offset: 0x35B1E5, size: 0x8, addend: 0x0, symName: __ZNK5boost10wrapexceptINS_10lock_errorEE7rethrowEv, symObjAddr: 0x443C, symBinAddr: 0xB5A2B4, symSize: 0x50 }
  - { offset: 0x35B4C2, size: 0x8, addend: 0x0, symName: __ZNK5boost10wrapexceptINS_10lock_errorEE7rethrowEv, symObjAddr: 0x443C, symBinAddr: 0xB5A2B4, symSize: 0x50 }
  - { offset: 0x35B4DF, size: 0x8, addend: 0x0, symName: __ZNK5boost10wrapexceptINS_10lock_errorEE7rethrowEv, symObjAddr: 0x443C, symBinAddr: 0xB5A2B4, symSize: 0x50 }
  - { offset: 0x35B4EE, size: 0x8, addend: 0x0, symName: __ZNK5boost10wrapexceptINS_10lock_errorEE7rethrowEv, symObjAddr: 0x443C, symBinAddr: 0xB5A2B4, symSize: 0x50 }
  - { offset: 0x35B4F6, size: 0x8, addend: 0x0, symName: __ZN5boost10wrapexceptINS_10lock_errorEED0Ev, symObjAddr: 0x448C, symBinAddr: 0xB5A304, symSize: 0x58 }
  - { offset: 0x35B547, size: 0x8, addend: 0x0, symName: __ZN5boost10wrapexceptINS_10lock_errorEED0Ev, symObjAddr: 0x448C, symBinAddr: 0xB5A304, symSize: 0x58 }
  - { offset: 0x35B54F, size: 0x8, addend: 0x0, symName: __ZThn8_N5boost10wrapexceptINS_10lock_errorEED1Ev, symObjAddr: 0x44E4, symBinAddr: 0xB5A35C, symSize: 0x50 }
  - { offset: 0x35B6B1, size: 0x8, addend: 0x0, symName: __ZThn8_N5boost10wrapexceptINS_10lock_errorEED1Ev, symObjAddr: 0x44E4, symBinAddr: 0xB5A35C, symSize: 0x50 }
  - { offset: 0x35B6B9, size: 0x8, addend: 0x0, symName: __ZThn8_N5boost10wrapexceptINS_10lock_errorEED0Ev, symObjAddr: 0x4534, symBinAddr: 0xB5A3AC, symSize: 0x5C }
  - { offset: 0x35B6DE, size: 0x8, addend: 0x0, symName: __ZThn8_N5boost10wrapexceptINS_10lock_errorEED0Ev, symObjAddr: 0x4534, symBinAddr: 0xB5A3AC, symSize: 0x5C }
  - { offset: 0x35B704, size: 0x8, addend: 0x0, symName: __ZThn8_N5boost10wrapexceptINS_10lock_errorEED0Ev, symObjAddr: 0x4534, symBinAddr: 0xB5A3AC, symSize: 0x5C }
  - { offset: 0x35B844, size: 0x8, addend: 0x0, symName: __ZThn8_N5boost10wrapexceptINS_10lock_errorEED0Ev, symObjAddr: 0x4534, symBinAddr: 0xB5A3AC, symSize: 0x5C }
  - { offset: 0x35B84C, size: 0x8, addend: 0x0, symName: __ZThn48_N5boost10wrapexceptINS_10lock_errorEED1Ev, symObjAddr: 0x4590, symBinAddr: 0xB5A408, symSize: 0x50 }
  - { offset: 0x35B9BC, size: 0x8, addend: 0x0, symName: __ZThn48_N5boost10wrapexceptINS_10lock_errorEED1Ev, symObjAddr: 0x4590, symBinAddr: 0xB5A408, symSize: 0x50 }
  - { offset: 0x35B9C4, size: 0x8, addend: 0x0, symName: __ZThn48_N5boost10wrapexceptINS_10lock_errorEED0Ev, symObjAddr: 0x45E0, symBinAddr: 0xB5A458, symSize: 0x5C }
  - { offset: 0x35B9E9, size: 0x8, addend: 0x0, symName: __ZThn48_N5boost10wrapexceptINS_10lock_errorEED0Ev, symObjAddr: 0x45E0, symBinAddr: 0xB5A458, symSize: 0x5C }
  - { offset: 0x35BA0F, size: 0x8, addend: 0x0, symName: __ZThn48_N5boost10wrapexceptINS_10lock_errorEED0Ev, symObjAddr: 0x45E0, symBinAddr: 0xB5A458, symSize: 0x5C }
  - { offset: 0x35BB28, size: 0x8, addend: 0x0, symName: __ZThn48_N5boost10wrapexceptINS_10lock_errorEED0Ev, symObjAddr: 0x45E0, symBinAddr: 0xB5A458, symSize: 0x5C }
  - { offset: 0x35BB30, size: 0x8, addend: 0x0, symName: __ZN5boost10lock_errorD0Ev, symObjAddr: 0x463C, symBinAddr: 0xB5A4B4, symSize: 0x14 }
  - { offset: 0x35BCA4, size: 0x8, addend: 0x0, symName: __ZN5boost10lock_errorD0Ev, symObjAddr: 0x463C, symBinAddr: 0xB5A4B4, symSize: 0x14 }
  - { offset: 0x35BD82, size: 0x8, addend: 0x0, symName: __ZN5boost10wrapexceptINS_10lock_errorEEC1ERKS2_, symObjAddr: 0x4668, symBinAddr: 0xB5A4C8, symSize: 0xE0 }
  - { offset: 0x35BD8A, size: 0x8, addend: 0x0, symName: __ZN5boost6system12system_errorC2ERKNS0_10error_codeEPKc, symObjAddr: 0x4748, symBinAddr: 0xB5A5A8, symSize: 0x250 }
  - { offset: 0x35BF67, size: 0x8, addend: 0x0, symName: __ZN5boost6system12system_errorC2ERKNS0_10error_codeEPKc, symObjAddr: 0x4748, symBinAddr: 0xB5A5A8, symSize: 0x250 }
  - { offset: 0x35BF90, size: 0x8, addend: 0x0, symName: __ZN5boost6system12system_errorC2ERKNS0_10error_codeEPKc, symObjAddr: 0x4748, symBinAddr: 0xB5A5A8, symSize: 0x250 }
  - { offset: 0x35BFB9, size: 0x8, addend: 0x0, symName: __ZN5boost6system12system_errorC2ERKNS0_10error_codeEPKc, symObjAddr: 0x4748, symBinAddr: 0xB5A5A8, symSize: 0x250 }
  - { offset: 0x35C4C7, size: 0x8, addend: 0x0, symName: __ZN5boost6system12system_errorC2ERKNS0_10error_codeEPKc, symObjAddr: 0x4748, symBinAddr: 0xB5A5A8, symSize: 0x250 }
  - { offset: 0x35D7FE, size: 0x8, addend: 0x0, symName: __ZN5boost11unique_lockINS_5mutexEE4lockEv, symObjAddr: 0x53B0, symBinAddr: 0xB5A7F8, symSize: 0xEC }
  - { offset: 0x35D806, size: 0x8, addend: 0x0, symName: __ZN5boost10wrapexceptINS_15condition_errorEEC1ERKS1_, symObjAddr: 0x549C, symBinAddr: 0xB5A8E4, symSize: 0x80 }
  - { offset: 0x35D905, size: 0x8, addend: 0x0, symName: __ZN5boost10wrapexceptINS_15condition_errorEEC1ERKS1_, symObjAddr: 0x549C, symBinAddr: 0xB5A8E4, symSize: 0x80 }
  - { offset: 0x35D90D, size: 0x8, addend: 0x0, symName: __ZN5boost10wrapexceptINS_15condition_errorEED1Ev, symObjAddr: 0x551C, symBinAddr: 0xB5A964, symSize: 0x58 }
  - { offset: 0x35DA46, size: 0x8, addend: 0x0, symName: __ZN5boost10wrapexceptINS_15condition_errorEED1Ev, symObjAddr: 0x551C, symBinAddr: 0xB5A964, symSize: 0x58 }
  - { offset: 0x35DA4E, size: 0x8, addend: 0x0, symName: __ZNK5boost10wrapexceptINS_15condition_errorEE5cloneEv, symObjAddr: 0x5574, symBinAddr: 0xB5A9BC, symSize: 0x110 }
  - { offset: 0x35DC23, size: 0x8, addend: 0x0, symName: __ZNK5boost10wrapexceptINS_15condition_errorEE5cloneEv, symObjAddr: 0x5574, symBinAddr: 0xB5A9BC, symSize: 0x110 }
  - { offset: 0x35DC2B, size: 0x8, addend: 0x0, symName: __ZNK5boost10wrapexceptINS_15condition_errorEE7rethrowEv, symObjAddr: 0x5684, symBinAddr: 0xB5AACC, symSize: 0x50 }
  - { offset: 0x35DEA6, size: 0x8, addend: 0x0, symName: __ZNK5boost10wrapexceptINS_15condition_errorEE7rethrowEv, symObjAddr: 0x5684, symBinAddr: 0xB5AACC, symSize: 0x50 }
  - { offset: 0x35DEC3, size: 0x8, addend: 0x0, symName: __ZNK5boost10wrapexceptINS_15condition_errorEE7rethrowEv, symObjAddr: 0x5684, symBinAddr: 0xB5AACC, symSize: 0x50 }
  - { offset: 0x35DED2, size: 0x8, addend: 0x0, symName: __ZNK5boost10wrapexceptINS_15condition_errorEE7rethrowEv, symObjAddr: 0x5684, symBinAddr: 0xB5AACC, symSize: 0x50 }
  - { offset: 0x35DEDA, size: 0x8, addend: 0x0, symName: __ZN5boost10wrapexceptINS_15condition_errorEED0Ev, symObjAddr: 0x56D4, symBinAddr: 0xB5AB1C, symSize: 0x58 }
  - { offset: 0x35DF2B, size: 0x8, addend: 0x0, symName: __ZN5boost10wrapexceptINS_15condition_errorEED0Ev, symObjAddr: 0x56D4, symBinAddr: 0xB5AB1C, symSize: 0x58 }
  - { offset: 0x35DF33, size: 0x8, addend: 0x0, symName: __ZThn8_N5boost10wrapexceptINS_15condition_errorEED1Ev, symObjAddr: 0x572C, symBinAddr: 0xB5AB74, symSize: 0x50 }
  - { offset: 0x35E06B, size: 0x8, addend: 0x0, symName: __ZThn8_N5boost10wrapexceptINS_15condition_errorEED1Ev, symObjAddr: 0x572C, symBinAddr: 0xB5AB74, symSize: 0x50 }
  - { offset: 0x35E073, size: 0x8, addend: 0x0, symName: __ZThn8_N5boost10wrapexceptINS_15condition_errorEED0Ev, symObjAddr: 0x577C, symBinAddr: 0xB5ABC4, symSize: 0x5C }
  - { offset: 0x35E098, size: 0x8, addend: 0x0, symName: __ZThn8_N5boost10wrapexceptINS_15condition_errorEED0Ev, symObjAddr: 0x577C, symBinAddr: 0xB5ABC4, symSize: 0x5C }
  - { offset: 0x35E0BE, size: 0x8, addend: 0x0, symName: __ZThn8_N5boost10wrapexceptINS_15condition_errorEED0Ev, symObjAddr: 0x577C, symBinAddr: 0xB5ABC4, symSize: 0x5C }
  - { offset: 0x35E1D2, size: 0x8, addend: 0x0, symName: __ZThn8_N5boost10wrapexceptINS_15condition_errorEED0Ev, symObjAddr: 0x577C, symBinAddr: 0xB5ABC4, symSize: 0x5C }
  - { offset: 0x35E1DA, size: 0x8, addend: 0x0, symName: __ZThn48_N5boost10wrapexceptINS_15condition_errorEED1Ev, symObjAddr: 0x57D8, symBinAddr: 0xB5AC20, symSize: 0x50 }
  - { offset: 0x35E320, size: 0x8, addend: 0x0, symName: __ZThn48_N5boost10wrapexceptINS_15condition_errorEED1Ev, symObjAddr: 0x57D8, symBinAddr: 0xB5AC20, symSize: 0x50 }
  - { offset: 0x35E328, size: 0x8, addend: 0x0, symName: __ZThn48_N5boost10wrapexceptINS_15condition_errorEED0Ev, symObjAddr: 0x5828, symBinAddr: 0xB5AC70, symSize: 0x5C }
  - { offset: 0x35E34D, size: 0x8, addend: 0x0, symName: __ZThn48_N5boost10wrapexceptINS_15condition_errorEED0Ev, symObjAddr: 0x5828, symBinAddr: 0xB5AC70, symSize: 0x5C }
  - { offset: 0x35E373, size: 0x8, addend: 0x0, symName: __ZThn48_N5boost10wrapexceptINS_15condition_errorEED0Ev, symObjAddr: 0x5828, symBinAddr: 0xB5AC70, symSize: 0x5C }
  - { offset: 0x35E462, size: 0x8, addend: 0x0, symName: __ZThn48_N5boost10wrapexceptINS_15condition_errorEED0Ev, symObjAddr: 0x5828, symBinAddr: 0xB5AC70, symSize: 0x5C }
  - { offset: 0x35E46A, size: 0x8, addend: 0x0, symName: __ZN5boost15condition_errorD0Ev, symObjAddr: 0x5884, symBinAddr: 0xB5ACCC, symSize: 0x14 }
  - { offset: 0x35E5B4, size: 0x8, addend: 0x0, symName: __ZN5boost15condition_errorD0Ev, symObjAddr: 0x5884, symBinAddr: 0xB5ACCC, symSize: 0x14 }
  - { offset: 0x35E5BC, size: 0x8, addend: 0x0, symName: __ZN5boost10wrapexceptINS_15condition_errorEEC1ERKS2_, symObjAddr: 0x5898, symBinAddr: 0xB5ACE0, symSize: 0xE0 }
  - { offset: 0x35E66A, size: 0x8, addend: 0x0, symName: __ZN5boost10wrapexceptINS_15condition_errorEEC1ERKS2_, symObjAddr: 0x5898, symBinAddr: 0xB5ACE0, symSize: 0xE0 }
  - { offset: 0x35E672, size: 0x8, addend: 0x0, symName: __ZNSt3__16vectorIN5boost10shared_ptrINS1_6detail17shared_state_baseEEENS_9allocatorIS5_EEE21__push_back_slow_pathIRKS5_EEPS5_OT_, symObjAddr: 0x5978, symBinAddr: 0xB5ADC0, symSize: 0x170 }
  - { offset: 0x35E823, size: 0x8, addend: 0x0, symName: __ZNSt3__16vectorIN5boost10shared_ptrINS1_6detail17shared_state_baseEEENS_9allocatorIS5_EEE21__push_back_slow_pathIRKS5_EEPS5_OT_, symObjAddr: 0x5978, symBinAddr: 0xB5ADC0, symSize: 0x170 }
  - { offset: 0x35E84C, size: 0x8, addend: 0x0, symName: __ZNSt3__16vectorIN5boost10shared_ptrINS1_6detail17shared_state_baseEEENS_9allocatorIS5_EEE21__push_back_slow_pathIRKS5_EEPS5_OT_, symObjAddr: 0x5978, symBinAddr: 0xB5ADC0, symSize: 0x170 }
  - { offset: 0x35EC17, size: 0x8, addend: 0x0, symName: __ZNSt3__16vectorIN5boost10shared_ptrINS1_6detail17shared_state_baseEEENS_9allocatorIS5_EEE21__push_back_slow_pathIRKS5_EEPS5_OT_, symObjAddr: 0x5978, symBinAddr: 0xB5ADC0, symSize: 0x170 }
  - { offset: 0x35F428, size: 0x8, addend: 0x0, symName: __ZN5boost16exception_detail10clone_implINS0_10bad_alloc_EEC1ERKS3_, symObjAddr: 0x5B50, symBinAddr: 0xB5AF30, symSize: 0x80 }
  - { offset: 0x35F430, size: 0x8, addend: 0x0, symName: __ZN5boost10shared_ptrIKNS_16exception_detail10clone_baseEED1Ev, symObjAddr: 0x5BD0, symBinAddr: 0xB5AFB0, symSize: 0x74 }
  - { offset: 0x35F557, size: 0x8, addend: 0x0, symName: __ZN5boost10shared_ptrIKNS_16exception_detail10clone_baseEED1Ev, symObjAddr: 0x5BD0, symBinAddr: 0xB5AFB0, symSize: 0x74 }
  - { offset: 0x35F55F, size: 0x8, addend: 0x0, symName: __ZN5boost16exception_detail10clone_implINS0_10bad_alloc_EED1Ev, symObjAddr: 0x5C44, symBinAddr: 0xB5B024, symSize: 0x58 }
  - { offset: 0x35F68A, size: 0x8, addend: 0x0, symName: __ZN5boost16exception_detail10clone_implINS0_10bad_alloc_EED1Ev, symObjAddr: 0x5C44, symBinAddr: 0xB5B024, symSize: 0x58 }
  - { offset: 0x35F692, size: 0x8, addend: 0x0, symName: __ZN5boost16exception_detail10bad_alloc_D1Ev, symObjAddr: 0x5C9C, symBinAddr: 0xB5B07C, symSize: 0x58 }
  - { offset: 0x35F77C, size: 0x8, addend: 0x0, symName: __ZN5boost16exception_detail10bad_alloc_D1Ev, symObjAddr: 0x5C9C, symBinAddr: 0xB5B07C, symSize: 0x58 }
  - { offset: 0x35F784, size: 0x8, addend: 0x0, symName: __ZN5boost16exception_detail10bad_alloc_D0Ev, symObjAddr: 0x5CF4, symBinAddr: 0xB5B0D4, symSize: 0x50 }
  - { offset: 0x35F84C, size: 0x8, addend: 0x0, symName: __ZN5boost16exception_detail10bad_alloc_D0Ev, symObjAddr: 0x5CF4, symBinAddr: 0xB5B0D4, symSize: 0x50 }
  - { offset: 0x35F854, size: 0x8, addend: 0x0, symName: __ZThn40_N5boost16exception_detail10bad_alloc_D1Ev, symObjAddr: 0x5D44, symBinAddr: 0xB5B124, symSize: 0x50 }
  - { offset: 0x35F93C, size: 0x8, addend: 0x0, symName: __ZThn40_N5boost16exception_detail10bad_alloc_D1Ev, symObjAddr: 0x5D44, symBinAddr: 0xB5B124, symSize: 0x50 }
  - { offset: 0x35F944, size: 0x8, addend: 0x0, symName: __ZThn40_N5boost16exception_detail10bad_alloc_D0Ev, symObjAddr: 0x5D94, symBinAddr: 0xB5B174, symSize: 0x4C }
  - { offset: 0x35FA31, size: 0x8, addend: 0x0, symName: __ZThn40_N5boost16exception_detail10bad_alloc_D0Ev, symObjAddr: 0x5D94, symBinAddr: 0xB5B174, symSize: 0x4C }
  - { offset: 0x35FA39, size: 0x8, addend: 0x0, symName: __ZN5boost16exception_detail10bad_alloc_D2Ev, symObjAddr: 0x5DE0, symBinAddr: 0xB5B1C0, symSize: 0x58 }
  - { offset: 0x35FA5E, size: 0x8, addend: 0x0, symName: __ZN5boost16exception_detail10bad_alloc_D2Ev, symObjAddr: 0x5DE0, symBinAddr: 0xB5B1C0, symSize: 0x58 }
  - { offset: 0x35FB3B, size: 0x8, addend: 0x0, symName: __ZN5boost16exception_detail10bad_alloc_D2Ev, symObjAddr: 0x5DE0, symBinAddr: 0xB5B1C0, symSize: 0x58 }
  - { offset: 0x35FB43, size: 0x8, addend: 0x0, symName: __ZN5boost16exception_detail10clone_implINS0_10bad_alloc_EED0Ev, symObjAddr: 0x5E38, symBinAddr: 0xB5B218, symSize: 0x50 }
  - { offset: 0x35FBEB, size: 0x8, addend: 0x0, symName: __ZN5boost16exception_detail10clone_implINS0_10bad_alloc_EED0Ev, symObjAddr: 0x5E38, symBinAddr: 0xB5B218, symSize: 0x50 }
  - { offset: 0x35FBF3, size: 0x8, addend: 0x0, symName: __ZNK5boost16exception_detail10clone_implINS0_10bad_alloc_EE5cloneEv, symObjAddr: 0x5E88, symBinAddr: 0xB5B268, symSize: 0xC8 }
  - { offset: 0x35FD3E, size: 0x8, addend: 0x0, symName: __ZNK5boost16exception_detail10clone_implINS0_10bad_alloc_EE5cloneEv, symObjAddr: 0x5E88, symBinAddr: 0xB5B268, symSize: 0xC8 }
  - { offset: 0x35FD46, size: 0x8, addend: 0x0, symName: __ZNK5boost16exception_detail10clone_implINS0_10bad_alloc_EE7rethrowEv, symObjAddr: 0x5F50, symBinAddr: 0xB5B330, symSize: 0x50 }
  - { offset: 0x35FE8E, size: 0x8, addend: 0x0, symName: __ZNK5boost16exception_detail10clone_implINS0_10bad_alloc_EE7rethrowEv, symObjAddr: 0x5F50, symBinAddr: 0xB5B330, symSize: 0x50 }
  - { offset: 0x35FE96, size: 0x8, addend: 0x0, symName: __ZThn40_N5boost16exception_detail10clone_implINS0_10bad_alloc_EED1Ev, symObjAddr: 0x5FA0, symBinAddr: 0xB5B380, symSize: 0x50 }
  - { offset: 0x35FEBD, size: 0x8, addend: 0x0, symName: __ZThn40_N5boost16exception_detail10clone_implINS0_10bad_alloc_EED1Ev, symObjAddr: 0x5FA0, symBinAddr: 0xB5B380, symSize: 0x50 }
  - { offset: 0x35FEC5, size: 0x8, addend: 0x0, symName: __ZThn40_N5boost16exception_detail10clone_implINS0_10bad_alloc_EED0Ev, symObjAddr: 0x5FF0, symBinAddr: 0xB5B3D0, symSize: 0x4C }
  - { offset: 0x35FFD1, size: 0x8, addend: 0x0, symName: __ZThn40_N5boost16exception_detail10clone_implINS0_10bad_alloc_EED0Ev, symObjAddr: 0x5FF0, symBinAddr: 0xB5B3D0, symSize: 0x4C }
  - { offset: 0x35FFD9, size: 0x8, addend: 0x0, symName: __ZTv0_n24_NK5boost16exception_detail10clone_implINS0_10bad_alloc_EE5cloneEv, symObjAddr: 0x603C, symBinAddr: 0xB5B41C, symSize: 0x10C }
  - { offset: 0x35FFFF, size: 0x8, addend: 0x0, symName: __ZTv0_n24_NK5boost16exception_detail10clone_implINS0_10bad_alloc_EE5cloneEv, symObjAddr: 0x603C, symBinAddr: 0xB5B41C, symSize: 0x10C }
  - { offset: 0x360127, size: 0x8, addend: 0x0, symName: __ZTv0_n24_NK5boost16exception_detail10clone_implINS0_10bad_alloc_EE5cloneEv, symObjAddr: 0x603C, symBinAddr: 0xB5B41C, symSize: 0x10C }
  - { offset: 0x36012F, size: 0x8, addend: 0x0, symName: __ZTv0_n32_NK5boost16exception_detail10clone_implINS0_10bad_alloc_EE7rethrowEv, symObjAddr: 0x6148, symBinAddr: 0xB5B528, symSize: 0x58 }
  - { offset: 0x36035F, size: 0x8, addend: 0x0, symName: __ZTv0_n32_NK5boost16exception_detail10clone_implINS0_10bad_alloc_EE7rethrowEv, symObjAddr: 0x6148, symBinAddr: 0xB5B528, symSize: 0x58 }
  - { offset: 0x360367, size: 0x8, addend: 0x0, symName: __ZTv0_n40_N5boost16exception_detail10clone_implINS0_10bad_alloc_EED1Ev, symObjAddr: 0x61A0, symBinAddr: 0xB5B580, symSize: 0x5C }
  - { offset: 0x36038D, size: 0x8, addend: 0x0, symName: __ZTv0_n40_N5boost16exception_detail10clone_implINS0_10bad_alloc_EED1Ev, symObjAddr: 0x61A0, symBinAddr: 0xB5B580, symSize: 0x5C }
  - { offset: 0x3603A9, size: 0x8, addend: 0x0, symName: __ZTv0_n40_N5boost16exception_detail10clone_implINS0_10bad_alloc_EED1Ev, symObjAddr: 0x61A0, symBinAddr: 0xB5B580, symSize: 0x5C }
  - { offset: 0x3603B1, size: 0x8, addend: 0x0, symName: __ZTv0_n40_N5boost16exception_detail10clone_implINS0_10bad_alloc_EED0Ev, symObjAddr: 0x61FC, symBinAddr: 0xB5B5DC, symSize: 0x58 }
  - { offset: 0x3604AA, size: 0x8, addend: 0x0, symName: __ZTv0_n40_N5boost16exception_detail10clone_implINS0_10bad_alloc_EED0Ev, symObjAddr: 0x61FC, symBinAddr: 0xB5B5DC, symSize: 0x58 }
  - { offset: 0x3604B2, size: 0x8, addend: 0x0, symName: __ZN5boost10shared_ptrIKNS_16exception_detail10clone_baseEEC2INS1_10clone_implINS1_10bad_alloc_EEEEEPT_, symObjAddr: 0x6254, symBinAddr: 0xB5B634, symSize: 0xB0 }
  - { offset: 0x3604D8, size: 0x8, addend: 0x0, symName: __ZN5boost10shared_ptrIKNS_16exception_detail10clone_baseEEC2INS1_10clone_implINS1_10bad_alloc_EEEEEPT_, symObjAddr: 0x6254, symBinAddr: 0xB5B634, symSize: 0xB0 }
  - { offset: 0x36070A, size: 0x8, addend: 0x0, symName: __ZN5boost10shared_ptrIKNS_16exception_detail10clone_baseEEC2INS1_10clone_implINS1_10bad_alloc_EEEEEPT_, symObjAddr: 0x6254, symBinAddr: 0xB5B634, symSize: 0xB0 }
  - { offset: 0x360712, size: 0x8, addend: 0x0, symName: __ZN5boost6detail17sp_counted_impl_pINS_16exception_detail10clone_implINS2_10bad_alloc_EEEED1Ev, symObjAddr: 0x6304, symBinAddr: 0xB5B6E4, symSize: 0x4 }
  - { offset: 0x360908, size: 0x8, addend: 0x0, symName: __ZN5boost6detail17sp_counted_impl_pINS_16exception_detail10clone_implINS2_10bad_alloc_EEEED1Ev, symObjAddr: 0x6304, symBinAddr: 0xB5B6E4, symSize: 0x4 }
  - { offset: 0x360910, size: 0x8, addend: 0x0, symName: __ZN5boost6detail17sp_counted_impl_pINS_16exception_detail10clone_implINS2_10bad_alloc_EEEED0Ev, symObjAddr: 0x6308, symBinAddr: 0xB5B6E8, symSize: 0x4 }
  - { offset: 0x360941, size: 0x8, addend: 0x0, symName: __ZN5boost6detail17sp_counted_impl_pINS_16exception_detail10clone_implINS2_10bad_alloc_EEEED0Ev, symObjAddr: 0x6308, symBinAddr: 0xB5B6E8, symSize: 0x4 }
  - { offset: 0x360949, size: 0x8, addend: 0x0, symName: __ZN5boost6detail17sp_counted_impl_pINS_16exception_detail10clone_implINS2_10bad_alloc_EEEE7disposeEv, symObjAddr: 0x630C, symBinAddr: 0xB5B6EC, symSize: 0x18 }
  - { offset: 0x36097A, size: 0x8, addend: 0x0, symName: __ZN5boost6detail17sp_counted_impl_pINS_16exception_detail10clone_implINS2_10bad_alloc_EEEE7disposeEv, symObjAddr: 0x630C, symBinAddr: 0xB5B6EC, symSize: 0x18 }
  - { offset: 0x3609D9, size: 0x8, addend: 0x0, symName: __ZN5boost6detail17sp_counted_impl_pINS_16exception_detail10clone_implINS2_10bad_alloc_EEEE11get_deleterERKSt9type_info, symObjAddr: 0x6338, symBinAddr: 0xB5B704, symSize: 0x8 }
  - { offset: 0x3609E1, size: 0x8, addend: 0x0, symName: __ZN5boost6detail17sp_counted_impl_pINS_16exception_detail10clone_implINS2_10bad_alloc_EEEE17get_local_deleterERKSt9type_info, symObjAddr: 0x6340, symBinAddr: 0xB5B70C, symSize: 0x8 }
  - { offset: 0x360A1C, size: 0x8, addend: 0x0, symName: __ZN5boost6detail17sp_counted_impl_pINS_16exception_detail10clone_implINS2_10bad_alloc_EEEE17get_local_deleterERKSt9type_info, symObjAddr: 0x6340, symBinAddr: 0xB5B70C, symSize: 0x8 }
  - { offset: 0x360A24, size: 0x8, addend: 0x0, symName: __ZN5boost6detail17sp_counted_impl_pINS_16exception_detail10clone_implINS2_10bad_alloc_EEEE19get_untyped_deleterEv, symObjAddr: 0x6348, symBinAddr: 0xB5B714, symSize: 0x8 }
  - { offset: 0x360A5F, size: 0x8, addend: 0x0, symName: __ZN5boost6detail17sp_counted_impl_pINS_16exception_detail10clone_implINS2_10bad_alloc_EEEE19get_untyped_deleterEv, symObjAddr: 0x6348, symBinAddr: 0xB5B714, symSize: 0x8 }
  - { offset: 0x360A67, size: 0x8, addend: 0x0, symName: __ZN5boost16exception_detail10clone_implINS0_14bad_exception_EEC1ERKS3_, symObjAddr: 0x6350, symBinAddr: 0xB5B71C, symSize: 0x80 }
  - { offset: 0x360A94, size: 0x8, addend: 0x0, symName: __ZN5boost16exception_detail10clone_implINS0_14bad_exception_EEC1ERKS3_, symObjAddr: 0x6350, symBinAddr: 0xB5B71C, symSize: 0x80 }
  - { offset: 0x360A9C, size: 0x8, addend: 0x0, symName: __ZN5boost16exception_detail10clone_implINS0_14bad_exception_EED1Ev, symObjAddr: 0x63D0, symBinAddr: 0xB5B79C, symSize: 0x58 }
  - { offset: 0x360BC3, size: 0x8, addend: 0x0, symName: __ZN5boost16exception_detail10clone_implINS0_14bad_exception_EED1Ev, symObjAddr: 0x63D0, symBinAddr: 0xB5B79C, symSize: 0x58 }
  - { offset: 0x360BCB, size: 0x8, addend: 0x0, symName: __ZN5boost16exception_detail14bad_exception_D1Ev, symObjAddr: 0x6428, symBinAddr: 0xB5B7F4, symSize: 0x58 }
  - { offset: 0x360CB5, size: 0x8, addend: 0x0, symName: __ZN5boost16exception_detail14bad_exception_D1Ev, symObjAddr: 0x6428, symBinAddr: 0xB5B7F4, symSize: 0x58 }
  - { offset: 0x360CBD, size: 0x8, addend: 0x0, symName: __ZN5boost16exception_detail14bad_exception_D0Ev, symObjAddr: 0x6480, symBinAddr: 0xB5B84C, symSize: 0x50 }
  - { offset: 0x360D85, size: 0x8, addend: 0x0, symName: __ZN5boost16exception_detail14bad_exception_D0Ev, symObjAddr: 0x6480, symBinAddr: 0xB5B84C, symSize: 0x50 }
  - { offset: 0x360D8D, size: 0x8, addend: 0x0, symName: __ZThn40_N5boost16exception_detail14bad_exception_D1Ev, symObjAddr: 0x64D0, symBinAddr: 0xB5B89C, symSize: 0x50 }
  - { offset: 0x360E75, size: 0x8, addend: 0x0, symName: __ZThn40_N5boost16exception_detail14bad_exception_D1Ev, symObjAddr: 0x64D0, symBinAddr: 0xB5B89C, symSize: 0x50 }
  - { offset: 0x360E7D, size: 0x8, addend: 0x0, symName: __ZThn40_N5boost16exception_detail14bad_exception_D0Ev, symObjAddr: 0x6520, symBinAddr: 0xB5B8EC, symSize: 0x4C }
  - { offset: 0x360F6A, size: 0x8, addend: 0x0, symName: __ZThn40_N5boost16exception_detail14bad_exception_D0Ev, symObjAddr: 0x6520, symBinAddr: 0xB5B8EC, symSize: 0x4C }
  - { offset: 0x360F72, size: 0x8, addend: 0x0, symName: __ZN5boost16exception_detail14bad_exception_D2Ev, symObjAddr: 0x656C, symBinAddr: 0xB5B938, symSize: 0x58 }
  - { offset: 0x360F97, size: 0x8, addend: 0x0, symName: __ZN5boost16exception_detail14bad_exception_D2Ev, symObjAddr: 0x656C, symBinAddr: 0xB5B938, symSize: 0x58 }
  - { offset: 0x361074, size: 0x8, addend: 0x0, symName: __ZN5boost16exception_detail14bad_exception_D2Ev, symObjAddr: 0x656C, symBinAddr: 0xB5B938, symSize: 0x58 }
  - { offset: 0x36107C, size: 0x8, addend: 0x0, symName: __ZN5boost16exception_detail10clone_implINS0_14bad_exception_EED0Ev, symObjAddr: 0x65C4, symBinAddr: 0xB5B990, symSize: 0x50 }
  - { offset: 0x361124, size: 0x8, addend: 0x0, symName: __ZN5boost16exception_detail10clone_implINS0_14bad_exception_EED0Ev, symObjAddr: 0x65C4, symBinAddr: 0xB5B990, symSize: 0x50 }
  - { offset: 0x36112C, size: 0x8, addend: 0x0, symName: __ZNK5boost16exception_detail10clone_implINS0_14bad_exception_EE5cloneEv, symObjAddr: 0x6614, symBinAddr: 0xB5B9E0, symSize: 0xC8 }
  - { offset: 0x361277, size: 0x8, addend: 0x0, symName: __ZNK5boost16exception_detail10clone_implINS0_14bad_exception_EE5cloneEv, symObjAddr: 0x6614, symBinAddr: 0xB5B9E0, symSize: 0xC8 }
  - { offset: 0x36127F, size: 0x8, addend: 0x0, symName: __ZNK5boost16exception_detail10clone_implINS0_14bad_exception_EE7rethrowEv, symObjAddr: 0x66DC, symBinAddr: 0xB5BAA8, symSize: 0x50 }
  - { offset: 0x3613C7, size: 0x8, addend: 0x0, symName: __ZNK5boost16exception_detail10clone_implINS0_14bad_exception_EE7rethrowEv, symObjAddr: 0x66DC, symBinAddr: 0xB5BAA8, symSize: 0x50 }
  - { offset: 0x3613CF, size: 0x8, addend: 0x0, symName: __ZThn40_N5boost16exception_detail10clone_implINS0_14bad_exception_EED1Ev, symObjAddr: 0x672C, symBinAddr: 0xB5BAF8, symSize: 0x50 }
  - { offset: 0x3613F6, size: 0x8, addend: 0x0, symName: __ZThn40_N5boost16exception_detail10clone_implINS0_14bad_exception_EED1Ev, symObjAddr: 0x672C, symBinAddr: 0xB5BAF8, symSize: 0x50 }
  - { offset: 0x3613FE, size: 0x8, addend: 0x0, symName: __ZThn40_N5boost16exception_detail10clone_implINS0_14bad_exception_EED0Ev, symObjAddr: 0x677C, symBinAddr: 0xB5BB48, symSize: 0x4C }
  - { offset: 0x36150A, size: 0x8, addend: 0x0, symName: __ZThn40_N5boost16exception_detail10clone_implINS0_14bad_exception_EED0Ev, symObjAddr: 0x677C, symBinAddr: 0xB5BB48, symSize: 0x4C }
  - { offset: 0x361512, size: 0x8, addend: 0x0, symName: __ZTv0_n24_NK5boost16exception_detail10clone_implINS0_14bad_exception_EE5cloneEv, symObjAddr: 0x67C8, symBinAddr: 0xB5BB94, symSize: 0x10C }
  - { offset: 0x361538, size: 0x8, addend: 0x0, symName: __ZTv0_n24_NK5boost16exception_detail10clone_implINS0_14bad_exception_EE5cloneEv, symObjAddr: 0x67C8, symBinAddr: 0xB5BB94, symSize: 0x10C }
  - { offset: 0x361660, size: 0x8, addend: 0x0, symName: __ZTv0_n24_NK5boost16exception_detail10clone_implINS0_14bad_exception_EE5cloneEv, symObjAddr: 0x67C8, symBinAddr: 0xB5BB94, symSize: 0x10C }
  - { offset: 0x361668, size: 0x8, addend: 0x0, symName: __ZTv0_n32_NK5boost16exception_detail10clone_implINS0_14bad_exception_EE7rethrowEv, symObjAddr: 0x68D4, symBinAddr: 0xB5BCA0, symSize: 0x58 }
  - { offset: 0x361898, size: 0x8, addend: 0x0, symName: __ZTv0_n32_NK5boost16exception_detail10clone_implINS0_14bad_exception_EE7rethrowEv, symObjAddr: 0x68D4, symBinAddr: 0xB5BCA0, symSize: 0x58 }
  - { offset: 0x3618A0, size: 0x8, addend: 0x0, symName: __ZTv0_n40_N5boost16exception_detail10clone_implINS0_14bad_exception_EED1Ev, symObjAddr: 0x692C, symBinAddr: 0xB5BCF8, symSize: 0x5C }
  - { offset: 0x3618C6, size: 0x8, addend: 0x0, symName: __ZTv0_n40_N5boost16exception_detail10clone_implINS0_14bad_exception_EED1Ev, symObjAddr: 0x692C, symBinAddr: 0xB5BCF8, symSize: 0x5C }
  - { offset: 0x3618E2, size: 0x8, addend: 0x0, symName: __ZTv0_n40_N5boost16exception_detail10clone_implINS0_14bad_exception_EED1Ev, symObjAddr: 0x692C, symBinAddr: 0xB5BCF8, symSize: 0x5C }
  - { offset: 0x3618EA, size: 0x8, addend: 0x0, symName: __ZTv0_n40_N5boost16exception_detail10clone_implINS0_14bad_exception_EED0Ev, symObjAddr: 0x6988, symBinAddr: 0xB5BD54, symSize: 0x58 }
  - { offset: 0x3619E3, size: 0x8, addend: 0x0, symName: __ZTv0_n40_N5boost16exception_detail10clone_implINS0_14bad_exception_EED0Ev, symObjAddr: 0x6988, symBinAddr: 0xB5BD54, symSize: 0x58 }
  - { offset: 0x3619EB, size: 0x8, addend: 0x0, symName: __ZN5boost10shared_ptrIKNS_16exception_detail10clone_baseEEC2INS1_10clone_implINS1_14bad_exception_EEEEEPT_, symObjAddr: 0x69E0, symBinAddr: 0xB5BDAC, symSize: 0xB0 }
  - { offset: 0x361A11, size: 0x8, addend: 0x0, symName: __ZN5boost10shared_ptrIKNS_16exception_detail10clone_baseEEC2INS1_10clone_implINS1_14bad_exception_EEEEEPT_, symObjAddr: 0x69E0, symBinAddr: 0xB5BDAC, symSize: 0xB0 }
  - { offset: 0x361C20, size: 0x8, addend: 0x0, symName: __ZN5boost10shared_ptrIKNS_16exception_detail10clone_baseEEC2INS1_10clone_implINS1_14bad_exception_EEEEEPT_, symObjAddr: 0x69E0, symBinAddr: 0xB5BDAC, symSize: 0xB0 }
  - { offset: 0x361C28, size: 0x8, addend: 0x0, symName: __ZN5boost6detail17sp_counted_impl_pINS_16exception_detail10clone_implINS2_14bad_exception_EEEED1Ev, symObjAddr: 0x6A90, symBinAddr: 0xB5BE5C, symSize: 0x4 }
  - { offset: 0x361E1E, size: 0x8, addend: 0x0, symName: __ZN5boost6detail17sp_counted_impl_pINS_16exception_detail10clone_implINS2_14bad_exception_EEEED1Ev, symObjAddr: 0x6A90, symBinAddr: 0xB5BE5C, symSize: 0x4 }
  - { offset: 0x361E26, size: 0x8, addend: 0x0, symName: __ZN5boost6detail17sp_counted_impl_pINS_16exception_detail10clone_implINS2_14bad_exception_EEEED0Ev, symObjAddr: 0x6A94, symBinAddr: 0xB5BE60, symSize: 0x4 }
  - { offset: 0x361E57, size: 0x8, addend: 0x0, symName: __ZN5boost6detail17sp_counted_impl_pINS_16exception_detail10clone_implINS2_14bad_exception_EEEED0Ev, symObjAddr: 0x6A94, symBinAddr: 0xB5BE60, symSize: 0x4 }
  - { offset: 0x361E5F, size: 0x8, addend: 0x0, symName: __ZN5boost6detail17sp_counted_impl_pINS_16exception_detail10clone_implINS2_14bad_exception_EEEE7disposeEv, symObjAddr: 0x6A98, symBinAddr: 0xB5BE64, symSize: 0x18 }
  - { offset: 0x361E90, size: 0x8, addend: 0x0, symName: __ZN5boost6detail17sp_counted_impl_pINS_16exception_detail10clone_implINS2_14bad_exception_EEEE7disposeEv, symObjAddr: 0x6A98, symBinAddr: 0xB5BE64, symSize: 0x18 }
  - { offset: 0x361E98, size: 0x8, addend: 0x0, symName: __ZN5boost6detail17sp_counted_impl_pINS_16exception_detail10clone_implINS2_14bad_exception_EEEE11get_deleterERKSt9type_info, symObjAddr: 0x6AB0, symBinAddr: 0xB5BE7C, symSize: 0x8 }
  - { offset: 0x361EEF, size: 0x8, addend: 0x0, symName: __ZN5boost6detail17sp_counted_impl_pINS_16exception_detail10clone_implINS2_14bad_exception_EEEE11get_deleterERKSt9type_info, symObjAddr: 0x6AB0, symBinAddr: 0xB5BE7C, symSize: 0x8 }
  - { offset: 0x361EF7, size: 0x8, addend: 0x0, symName: __ZN5boost6detail17sp_counted_impl_pINS_16exception_detail10clone_implINS2_14bad_exception_EEEE17get_local_deleterERKSt9type_info, symObjAddr: 0x6AB8, symBinAddr: 0xB5BE84, symSize: 0x8 }
  - { offset: 0x361F32, size: 0x8, addend: 0x0, symName: __ZN5boost6detail17sp_counted_impl_pINS_16exception_detail10clone_implINS2_14bad_exception_EEEE17get_local_deleterERKSt9type_info, symObjAddr: 0x6AB8, symBinAddr: 0xB5BE84, symSize: 0x8 }
  - { offset: 0x361F3A, size: 0x8, addend: 0x0, symName: __ZN5boost6detail17sp_counted_impl_pINS_16exception_detail10clone_implINS2_14bad_exception_EEEE19get_untyped_deleterEv, symObjAddr: 0x6AC0, symBinAddr: 0xB5BE8C, symSize: 0x8 }
  - { offset: 0x361F75, size: 0x8, addend: 0x0, symName: __ZN5boost6detail17sp_counted_impl_pINS_16exception_detail10clone_implINS2_14bad_exception_EEEE19get_untyped_deleterEv, symObjAddr: 0x6AC0, symBinAddr: 0xB5BE8C, symSize: 0x8 }
  - { offset: 0x361F7D, size: 0x8, addend: 0x0, symName: __ZN5boost6detail16thread_data_baseC2Ev, symObjAddr: 0x6AC8, symBinAddr: 0xB5BE94, symSize: 0x18C }
  - { offset: 0x3623CC, size: 0x8, addend: 0x0, symName: __ZN5boost6detail16thread_data_baseC2Ev, symObjAddr: 0x6AC8, symBinAddr: 0xB5BE94, symSize: 0x18C }
  - { offset: 0x3623D4, size: 0x8, addend: 0x0, symName: __ZN5boost6detail26externally_launched_threadD1Ev, symObjAddr: 0x6C54, symBinAddr: 0xB5C020, symSize: 0xB8 }
  - { offset: 0x362931, size: 0x8, addend: 0x0, symName: __ZN5boost6detail26externally_launched_threadD1Ev, symObjAddr: 0x6C54, symBinAddr: 0xB5C020, symSize: 0xB8 }
  - { offset: 0x362939, size: 0x8, addend: 0x0, symName: __ZN5boost6detail26externally_launched_threadD0Ev, symObjAddr: 0x6D0C, symBinAddr: 0xB5C0D8, symSize: 0xBC }
  - { offset: 0x36296F, size: 0x8, addend: 0x0, symName: __ZN5boost6detail26externally_launched_threadD0Ev, symObjAddr: 0x6D0C, symBinAddr: 0xB5C0D8, symSize: 0xBC }
  - { offset: 0x362C45, size: 0x8, addend: 0x0, symName: __ZN5boost6detail26externally_launched_threadD0Ev, symObjAddr: 0x6D0C, symBinAddr: 0xB5C0D8, symSize: 0xBC }
  - { offset: 0x362C4D, size: 0x8, addend: 0x0, symName: __ZN5boost6detail26externally_launched_thread3runEv, symObjAddr: 0x6DC8, symBinAddr: 0xB5C194, symSize: 0x4 }
  - { offset: 0x362F53, size: 0x8, addend: 0x0, symName: __ZN5boost6detail26externally_launched_thread3runEv, symObjAddr: 0x6DC8, symBinAddr: 0xB5C194, symSize: 0x4 }
  - { offset: 0x362F5B, size: 0x8, addend: 0x0, symName: __ZN5boost6detail26externally_launched_thread25notify_all_at_thread_exitEPNS_18condition_variableEPNS_5mutexE, symObjAddr: 0x6DCC, symBinAddr: 0xB5C198, symSize: 0x4 }
  - { offset: 0x362F86, size: 0x8, addend: 0x0, symName: __ZN5boost6detail26externally_launched_thread25notify_all_at_thread_exitEPNS_18condition_variableEPNS_5mutexE, symObjAddr: 0x6DCC, symBinAddr: 0xB5C198, symSize: 0x4 }
  - { offset: 0x362F8E, size: 0x8, addend: 0x0, symName: __ZN5boost15throw_exceptionINS_21thread_resource_errorEEEvRKT_, symObjAddr: 0x6DD0, symBinAddr: 0xB5C19C, symSize: 0x50 }
  - { offset: 0x362FD5, size: 0x8, addend: 0x0, symName: __ZN5boost21thread_resource_errorC1EiPKc, symObjAddr: 0x6E20, symBinAddr: 0xB5C1EC, symSize: 0xB0 }
  - { offset: 0x362FDD, size: 0x8, addend: 0x0, symName: __ZN5boost21thread_resource_errorD1Ev, symObjAddr: 0x6ED0, symBinAddr: 0xB5C29C, symSize: 0x4 }
  - { offset: 0x3630F4, size: 0x8, addend: 0x0, symName: __ZN5boost21thread_resource_errorD1Ev, symObjAddr: 0x6ED0, symBinAddr: 0xB5C29C, symSize: 0x4 }
  - { offset: 0x3630FC, size: 0x8, addend: 0x0, symName: __ZN5boost10wrapexceptINS_21thread_resource_errorEEC1ERKS1_, symObjAddr: 0x6ED4, symBinAddr: 0xB5C2A0, symSize: 0x80 }
  - { offset: 0x363129, size: 0x8, addend: 0x0, symName: __ZN5boost21thread_resource_errorD1Ev, symObjAddr: 0x6ED0, symBinAddr: 0xB5C29C, symSize: 0x4 }
  - { offset: 0x363131, size: 0x8, addend: 0x0, symName: __ZN5boost10wrapexceptINS_21thread_resource_errorEEC1ERKS1_, symObjAddr: 0x6ED4, symBinAddr: 0xB5C2A0, symSize: 0x80 }
  - { offset: 0x363152, size: 0x8, addend: 0x0, symName: __ZN5boost21thread_resource_errorD1Ev, symObjAddr: 0x6ED0, symBinAddr: 0xB5C29C, symSize: 0x4 }
  - { offset: 0x36315A, size: 0x8, addend: 0x0, symName: __ZN5boost10wrapexceptINS_21thread_resource_errorEEC1ERKS1_, symObjAddr: 0x6ED4, symBinAddr: 0xB5C2A0, symSize: 0x80 }
  - { offset: 0x36317B, size: 0x8, addend: 0x0, symName: __ZN5boost21thread_resource_errorD1Ev, symObjAddr: 0x6ED0, symBinAddr: 0xB5C29C, symSize: 0x4 }
  - { offset: 0x363183, size: 0x8, addend: 0x0, symName: __ZN5boost10wrapexceptINS_21thread_resource_errorEEC1ERKS1_, symObjAddr: 0x6ED4, symBinAddr: 0xB5C2A0, symSize: 0x80 }
  - { offset: 0x363209, size: 0x8, addend: 0x0, symName: __ZN5boost10wrapexceptINS_21thread_resource_errorEEC1ERKS1_, symObjAddr: 0x6ED4, symBinAddr: 0xB5C2A0, symSize: 0x80 }
  - { offset: 0x363211, size: 0x8, addend: 0x0, symName: __ZN5boost10wrapexceptINS_21thread_resource_errorEED1Ev, symObjAddr: 0x6F54, symBinAddr: 0xB5C320, symSize: 0x58 }
  - { offset: 0x363374, size: 0x8, addend: 0x0, symName: __ZN5boost10wrapexceptINS_21thread_resource_errorEED1Ev, symObjAddr: 0x6F54, symBinAddr: 0xB5C320, symSize: 0x58 }
  - { offset: 0x36337C, size: 0x8, addend: 0x0, symName: __ZNK5boost10wrapexceptINS_21thread_resource_errorEE5cloneEv, symObjAddr: 0x6FAC, symBinAddr: 0xB5C378, symSize: 0x110 }
  - { offset: 0x36357B, size: 0x8, addend: 0x0, symName: __ZNK5boost10wrapexceptINS_21thread_resource_errorEE5cloneEv, symObjAddr: 0x6FAC, symBinAddr: 0xB5C378, symSize: 0x110 }
  - { offset: 0x363583, size: 0x8, addend: 0x0, symName: __ZNK5boost10wrapexceptINS_21thread_resource_errorEE7rethrowEv, symObjAddr: 0x70BC, symBinAddr: 0xB5C488, symSize: 0x50 }
  - { offset: 0x363860, size: 0x8, addend: 0x0, symName: __ZNK5boost10wrapexceptINS_21thread_resource_errorEE7rethrowEv, symObjAddr: 0x70BC, symBinAddr: 0xB5C488, symSize: 0x50 }
  - { offset: 0x36387D, size: 0x8, addend: 0x0, symName: __ZNK5boost10wrapexceptINS_21thread_resource_errorEE7rethrowEv, symObjAddr: 0x70BC, symBinAddr: 0xB5C488, symSize: 0x50 }
  - { offset: 0x36388C, size: 0x8, addend: 0x0, symName: __ZNK5boost10wrapexceptINS_21thread_resource_errorEE7rethrowEv, symObjAddr: 0x70BC, symBinAddr: 0xB5C488, symSize: 0x50 }
  - { offset: 0x363894, size: 0x8, addend: 0x0, symName: __ZN5boost10wrapexceptINS_21thread_resource_errorEED0Ev, symObjAddr: 0x710C, symBinAddr: 0xB5C4D8, symSize: 0x58 }
  - { offset: 0x3638E5, size: 0x8, addend: 0x0, symName: __ZN5boost10wrapexceptINS_21thread_resource_errorEED0Ev, symObjAddr: 0x710C, symBinAddr: 0xB5C4D8, symSize: 0x58 }
  - { offset: 0x3638ED, size: 0x8, addend: 0x0, symName: __ZThn8_N5boost10wrapexceptINS_21thread_resource_errorEED1Ev, symObjAddr: 0x7164, symBinAddr: 0xB5C530, symSize: 0x50 }
  - { offset: 0x363A4F, size: 0x8, addend: 0x0, symName: __ZThn8_N5boost10wrapexceptINS_21thread_resource_errorEED1Ev, symObjAddr: 0x7164, symBinAddr: 0xB5C530, symSize: 0x50 }
  - { offset: 0x363A57, size: 0x8, addend: 0x0, symName: __ZThn8_N5boost10wrapexceptINS_21thread_resource_errorEED0Ev, symObjAddr: 0x71B4, symBinAddr: 0xB5C580, symSize: 0x5C }
  - { offset: 0x363A7C, size: 0x8, addend: 0x0, symName: __ZThn8_N5boost10wrapexceptINS_21thread_resource_errorEED0Ev, symObjAddr: 0x71B4, symBinAddr: 0xB5C580, symSize: 0x5C }
  - { offset: 0x363AA2, size: 0x8, addend: 0x0, symName: __ZThn8_N5boost10wrapexceptINS_21thread_resource_errorEED0Ev, symObjAddr: 0x71B4, symBinAddr: 0xB5C580, symSize: 0x5C }
  - { offset: 0x363BE2, size: 0x8, addend: 0x0, symName: __ZThn8_N5boost10wrapexceptINS_21thread_resource_errorEED0Ev, symObjAddr: 0x71B4, symBinAddr: 0xB5C580, symSize: 0x5C }
  - { offset: 0x363BEA, size: 0x8, addend: 0x0, symName: __ZThn48_N5boost10wrapexceptINS_21thread_resource_errorEED1Ev, symObjAddr: 0x7210, symBinAddr: 0xB5C5DC, symSize: 0x50 }
  - { offset: 0x363D5A, size: 0x8, addend: 0x0, symName: __ZThn48_N5boost10wrapexceptINS_21thread_resource_errorEED1Ev, symObjAddr: 0x7210, symBinAddr: 0xB5C5DC, symSize: 0x50 }
  - { offset: 0x363D62, size: 0x8, addend: 0x0, symName: __ZThn48_N5boost10wrapexceptINS_21thread_resource_errorEED0Ev, symObjAddr: 0x7260, symBinAddr: 0xB5C62C, symSize: 0x5C }
  - { offset: 0x363D87, size: 0x8, addend: 0x0, symName: __ZThn48_N5boost10wrapexceptINS_21thread_resource_errorEED0Ev, symObjAddr: 0x7260, symBinAddr: 0xB5C62C, symSize: 0x5C }
  - { offset: 0x363DAD, size: 0x8, addend: 0x0, symName: __ZThn48_N5boost10wrapexceptINS_21thread_resource_errorEED0Ev, symObjAddr: 0x7260, symBinAddr: 0xB5C62C, symSize: 0x5C }
  - { offset: 0x363EC6, size: 0x8, addend: 0x0, symName: __ZThn48_N5boost10wrapexceptINS_21thread_resource_errorEED0Ev, symObjAddr: 0x7260, symBinAddr: 0xB5C62C, symSize: 0x5C }
  - { offset: 0x363ECE, size: 0x8, addend: 0x0, symName: __ZN5boost21thread_resource_errorD0Ev, symObjAddr: 0x72BC, symBinAddr: 0xB5C688, symSize: 0x14 }
  - { offset: 0x364042, size: 0x8, addend: 0x0, symName: __ZN5boost21thread_resource_errorD0Ev, symObjAddr: 0x72BC, symBinAddr: 0xB5C688, symSize: 0x14 }
  - { offset: 0x36404A, size: 0x8, addend: 0x0, symName: __ZN5boost10wrapexceptINS_21thread_resource_errorEEC1ERKS2_, symObjAddr: 0x72D0, symBinAddr: 0xB5C69C, symSize: 0xE0 }
  - { offset: 0x364120, size: 0x8, addend: 0x0, symName: __ZN5boost10wrapexceptINS_21thread_resource_errorEEC1ERKS2_, symObjAddr: 0x72D0, symBinAddr: 0xB5C69C, symSize: 0xE0 }
  - { offset: 0x364128, size: 0x8, addend: 0x0, symName: __ZN5boost18condition_variableC2Ev, symObjAddr: 0x73B0, symBinAddr: 0xB5C77C, symSize: 0xC0 }
  - { offset: 0x364305, size: 0x8, addend: 0x0, symName: __ZN5boost18condition_variableC2Ev, symObjAddr: 0x73B0, symBinAddr: 0xB5C77C, symSize: 0xC0 }
  - { offset: 0x36432E, size: 0x8, addend: 0x0, symName: __ZN5boost18condition_variableC2Ev, symObjAddr: 0x73B0, symBinAddr: 0xB5C77C, symSize: 0xC0 }
  - { offset: 0x364357, size: 0x8, addend: 0x0, symName: __ZN5boost18condition_variableC2Ev, symObjAddr: 0x73B0, symBinAddr: 0xB5C77C, symSize: 0xC0 }
  - { offset: 0x364375, size: 0x8, addend: 0x0, symName: __ZN5boost18condition_variableC2Ev, symObjAddr: 0x73B0, symBinAddr: 0xB5C77C, symSize: 0xC0 }
  - { offset: 0x36437D, size: 0x8, addend: 0x0, symName: __ZN5boost6detail20sp_pointer_constructINS0_16thread_data_baseES2_EEvPNS_10shared_ptrIT_EEPT0_RNS0_12shared_countE, symObjAddr: 0x7470, symBinAddr: 0xB5C83C, symSize: 0xFC }
  - { offset: 0x364460, size: 0x8, addend: 0x0, symName: __ZN5boost6detail20sp_pointer_constructINS0_16thread_data_baseES2_EEvPNS_10shared_ptrIT_EEPT0_RNS0_12shared_countE, symObjAddr: 0x7470, symBinAddr: 0xB5C83C, symSize: 0xFC }
  - { offset: 0x36447C, size: 0x8, addend: 0x0, symName: __ZN5boost6detail20sp_pointer_constructINS0_16thread_data_baseES2_EEvPNS_10shared_ptrIT_EEPT0_RNS0_12shared_countE, symObjAddr: 0x7470, symBinAddr: 0xB5C83C, symSize: 0xFC }
  - { offset: 0x364499, size: 0x8, addend: 0x0, symName: __ZN5boost6detail20sp_pointer_constructINS0_16thread_data_baseES2_EEvPNS_10shared_ptrIT_EEPT0_RNS0_12shared_countE, symObjAddr: 0x7470, symBinAddr: 0xB5C83C, symSize: 0xFC }
  - { offset: 0x3644B6, size: 0x8, addend: 0x0, symName: __ZN5boost6detail20sp_pointer_constructINS0_16thread_data_baseES2_EEvPNS_10shared_ptrIT_EEPT0_RNS0_12shared_countE, symObjAddr: 0x7470, symBinAddr: 0xB5C83C, symSize: 0xFC }
  - { offset: 0x3645F2, size: 0x8, addend: 0x0, symName: __ZN5boost6detail17sp_counted_impl_pINS0_16thread_data_baseEED1Ev, symObjAddr: 0x756C, symBinAddr: 0xB5C938, symSize: 0x4 }
  - { offset: 0x3645FA, size: 0x8, addend: 0x0, symName: __ZN5boost6detail17sp_counted_impl_pINS0_16thread_data_baseEED0Ev, symObjAddr: 0x7570, symBinAddr: 0xB5C93C, symSize: 0x4 }
  - { offset: 0x36462B, size: 0x8, addend: 0x0, symName: __ZN5boost6detail17sp_counted_impl_pINS0_16thread_data_baseEED0Ev, symObjAddr: 0x7570, symBinAddr: 0xB5C93C, symSize: 0x4 }
  - { offset: 0x364633, size: 0x8, addend: 0x0, symName: __ZN5boost6detail17sp_counted_impl_pINS0_16thread_data_baseEE7disposeEv, symObjAddr: 0x7574, symBinAddr: 0xB5C940, symSize: 0x18 }
  - { offset: 0x364664, size: 0x8, addend: 0x0, symName: __ZN5boost6detail17sp_counted_impl_pINS0_16thread_data_baseEE7disposeEv, symObjAddr: 0x7574, symBinAddr: 0xB5C940, symSize: 0x18 }
  - { offset: 0x36466C, size: 0x8, addend: 0x0, symName: __ZN5boost6detail17sp_counted_impl_pINS0_16thread_data_baseEE11get_deleterERKSt9type_info, symObjAddr: 0x758C, symBinAddr: 0xB5C958, symSize: 0x8 }
  - { offset: 0x3646C3, size: 0x8, addend: 0x0, symName: __ZN5boost6detail17sp_counted_impl_pINS0_16thread_data_baseEE11get_deleterERKSt9type_info, symObjAddr: 0x758C, symBinAddr: 0xB5C958, symSize: 0x8 }
  - { offset: 0x3646CB, size: 0x8, addend: 0x0, symName: __ZN5boost6detail17sp_counted_impl_pINS0_16thread_data_baseEE17get_local_deleterERKSt9type_info, symObjAddr: 0x7594, symBinAddr: 0xB5C960, symSize: 0x8 }
  - { offset: 0x364706, size: 0x8, addend: 0x0, symName: __ZN5boost6detail17sp_counted_impl_pINS0_16thread_data_baseEE17get_local_deleterERKSt9type_info, symObjAddr: 0x7594, symBinAddr: 0xB5C960, symSize: 0x8 }
  - { offset: 0x36470E, size: 0x8, addend: 0x0, symName: __ZN5boost6detail17sp_counted_impl_pINS0_16thread_data_baseEE19get_untyped_deleterEv, symObjAddr: 0x759C, symBinAddr: 0xB5C968, symSize: 0x8 }
  - { offset: 0x364749, size: 0x8, addend: 0x0, symName: __ZN5boost6detail17sp_counted_impl_pINS0_16thread_data_baseEE19get_untyped_deleterEv, symObjAddr: 0x759C, symBinAddr: 0xB5C968, symSize: 0x8 }
  - { offset: 0x364751, size: 0x8, addend: 0x0, symName: __ZNK5boost23enable_shared_from_thisINS_6detail16thread_data_baseEE22_internal_accept_ownerIS2_S2_EEvPKNS_10shared_ptrIT_EEPT0_, symObjAddr: 0x75A4, symBinAddr: 0xB5C970, symSize: 0xF0 }
  - { offset: 0x364942, size: 0x8, addend: 0x0, symName: __ZNK5boost23enable_shared_from_thisINS_6detail16thread_data_baseEE22_internal_accept_ownerIS2_S2_EEvPKNS_10shared_ptrIT_EEPT0_, symObjAddr: 0x75A4, symBinAddr: 0xB5C970, symSize: 0xF0 }
  - { offset: 0x3682C5, size: 0x8, addend: 0x0, symName: __MergedGlobals, symObjAddr: 0x218, symBinAddr: 0xEB4F20, symSize: 0x0 }
  - { offset: 0x3682E5, size: 0x8, addend: 0x0, symName: __MergedGlobals, symObjAddr: 0x218, symBinAddr: 0xEB4F20, symSize: 0x0 }
  - { offset: 0x368302, size: 0x8, addend: 0x0, symName: __ZN5boost13thread_detail17enter_once_regionERNS_9once_flagE, symObjAddr: 0x0, symBinAddr: 0xB5CB4C, symSize: 0xE8 }
  - { offset: 0x36868A, size: 0x8, addend: 0x0, symName: __ZN5boost13thread_detail18commit_once_regionERNS_9once_flagE, symObjAddr: 0xF8, symBinAddr: 0xB5CC34, symSize: 0x6C }
  - { offset: 0x368692, size: 0x8, addend: 0x0, symName: __ZN5boost13thread_detail20rollback_once_regionERNS_9once_flagE, symObjAddr: 0x164, symBinAddr: 0xB5CCA0, symSize: 0x68 }
  - { offset: 0x36884D, size: 0x8, addend: 0x0, symName: __ZN5boost13thread_detail20rollback_once_regionERNS_9once_flagE, symObjAddr: 0x164, symBinAddr: 0xB5CCA0, symSize: 0x68 }
...
